libOpenColorIO.so.2.4:_ZN16OpenColorIO_v2_410ColorSpace11addCategoryEPKc
libOpenColorIO.so.2.4:_ZN16OpenColorIO_v2_410ColorSpace11removeAliasEPKc
libOpenColorIO.so.2.4:_ZN16OpenColorIO_v2_410ColorSpace11setBitDepthENS_8BitDepthE
libOpenColorIO.so.2.4:_ZN16OpenColorIO_v2_410ColorSpace11setEncodingEPKc
libOpenColorIO.so.2.4:_ZN16OpenColorIO_v2_410ColorSpace12clearAliasesEv
libOpenColorIO.so.2.4:_ZN16OpenColorIO_v2_410ColorSpace12setTransformERKSt10shared_ptrIKNS_9TransformEENS_19ColorSpaceDirectionE
libOpenColorIO.so.2.4:_ZN16OpenColorIO_v2_410ColorSpace13setAllocationENS_10AllocationE
libOpenColorIO.so.2.4:_ZN16OpenColorIO_v2_410ColorSpace14removeCategoryEPKc
libOpenColorIO.so.2.4:_ZN16OpenColorIO_v2_410ColorSpace14setDescriptionEPKc
libOpenColorIO.so.2.4:_ZN16OpenColorIO_v2_410ColorSpace15clearCategoriesEv
libOpenColorIO.so.2.4:_ZN16OpenColorIO_v2_410ColorSpace16setEqualityGroupEPKc
libOpenColorIO.so.2.4:_ZN16OpenColorIO_v2_410ColorSpace17setAllocationVarsEiPKf
libOpenColorIO.so.2.4:_ZN16OpenColorIO_v2_410ColorSpace6CreateENS_18ReferenceSpaceTypeE
libOpenColorIO.so.2.4:_ZN16OpenColorIO_v2_410ColorSpace6CreateEv
libOpenColorIO.so.2.4:_ZN16OpenColorIO_v2_410ColorSpace7deleterEPS0_
libOpenColorIO.so.2.4:_ZN16OpenColorIO_v2_410ColorSpace7setNameEPKc
libOpenColorIO.so.2.4:_ZN16OpenColorIO_v2_410ColorSpace8addAliasEPKc
libOpenColorIO.so.2.4:_ZN16OpenColorIO_v2_410ColorSpace9setFamilyEPKc
libOpenColorIO.so.2.4:_ZN16OpenColorIO_v2_410ColorSpace9setIsDataEb
libOpenColorIO.so.2.4:_ZN16OpenColorIO_v2_410ColorSpaceC1ENS_18ReferenceSpaceTypeE
libOpenColorIO.so.2.4:_ZN16OpenColorIO_v2_410ColorSpaceC2ENS_18ReferenceSpaceTypeE
libOpenColorIO.so.2.4:_ZN16OpenColorIO_v2_410ColorSpaceD1Ev
libOpenColorIO.so.2.4:_ZN16OpenColorIO_v2_410ColorSpaceD2Ev
libOpenColorIO.so.2.4:_ZN16OpenColorIO_v2_410GetVersionEv
libOpenColorIO.so.2.4:_ZN16OpenColorIO_v2_410LogMessageENS_12LoggingLevelEPKc
libOpenColorIO.so.2.4:_ZN16OpenColorIO_v2_412BoolToStringEb
libOpenColorIO.so.2.4:_ZN16OpenColorIO_v2_412CDLTransform14CreateFromFileEPKcS2_
libOpenColorIO.so.2.4:_ZN16OpenColorIO_v2_412CDLTransform19CreateGroupFromFileEPKc
libOpenColorIO.so.2.4:_ZN16OpenColorIO_v2_412CDLTransform6CreateEv
libOpenColorIO.so.2.4:_ZN16OpenColorIO_v2_412CPUProcessor4Impl8finalizeERKNS_10OpRcPtrVecENS_8BitDepthES5_NS_17OptimizationFlagsE
libOpenColorIO.so.2.4:_ZN16OpenColorIO_v2_412CPUProcessor7deleterEPS0_
libOpenColorIO.so.2.4:_ZN16OpenColorIO_v2_412CPUProcessorC1Ev
libOpenColorIO.so.2.4:_ZN16OpenColorIO_v2_412CPUProcessorC2Ev
libOpenColorIO.so.2.4:_ZN16OpenColorIO_v2_412CPUProcessorD1Ev
libOpenColorIO.so.2.4:_ZN16OpenColorIO_v2_412CPUProcessorD2Ev
libOpenColorIO.so.2.4:_ZN16OpenColorIO_v2_412GPUProcessor4Impl8finalizeERKNS_10OpRcPtrVecENS_17OptimizationFlagsE
libOpenColorIO.so.2.4:_ZN16OpenColorIO_v2_412GPUProcessor7deleterEPS0_
libOpenColorIO.so.2.4:_ZN16OpenColorIO_v2_412GPUProcessorC1Ev
libOpenColorIO.so.2.4:_ZN16OpenColorIO_v2_412GPUProcessorC2Ev
libOpenColorIO.so.2.4:_ZN16OpenColorIO_v2_412GPUProcessorD1Ev
libOpenColorIO.so.2.4:_ZN16OpenColorIO_v2_412GPUProcessorD2Ev
libOpenColorIO.so.2.4:_ZN16OpenColorIO_v2_412LogTransform6CreateEv
libOpenColorIO.so.2.4:_ZN16OpenColorIO_v2_412ViewingRules10insertRuleEmPKc
libOpenColorIO.so.2.4:_ZN16OpenColorIO_v2_412ViewingRules10removeRuleEm
libOpenColorIO.so.2.4:_ZN16OpenColorIO_v2_412ViewingRules11addEncodingEmPKc
libOpenColorIO.so.2.4:_ZN16OpenColorIO_v2_412ViewingRules12setCustomKeyEmPKcS2_
libOpenColorIO.so.2.4:_ZN16OpenColorIO_v2_412ViewingRules13addColorSpaceEmPKc
libOpenColorIO.so.2.4:_ZN16OpenColorIO_v2_412ViewingRules14removeEncodingEmm
libOpenColorIO.so.2.4:_ZN16OpenColorIO_v2_412ViewingRules16removeColorSpaceEmm
libOpenColorIO.so.2.4:_ZN16OpenColorIO_v2_412ViewingRules4ImplaSERKS1_
libOpenColorIO.so.2.4:_ZN16OpenColorIO_v2_412ViewingRules6CreateEv
libOpenColorIO.so.2.4:_ZN16OpenColorIO_v2_412ViewingRules7deleterEPS0_
libOpenColorIO.so.2.4:_ZN16OpenColorIO_v2_412ViewingRulesC1Ev
libOpenColorIO.so.2.4:_ZN16OpenColorIO_v2_412ViewingRulesC2Ev
libOpenColorIO.so.2.4:_ZN16OpenColorIO_v2_412ViewingRulesD0Ev
libOpenColorIO.so.2.4:_ZN16OpenColorIO_v2_412ViewingRulesD1Ev
libOpenColorIO.so.2.4:_ZN16OpenColorIO_v2_412ViewingRulesD2Ev
libOpenColorIO.so.2.4:_ZN16OpenColorIO_v2_413BitDepthToIntENS_8BitDepthE
libOpenColorIO.so.2.4:_ZN16OpenColorIO_v2_413ColorSpaceSet13addColorSpaceERKSt10shared_ptrIKNS_10ColorSpaceEE
libOpenColorIO.so.2.4:_ZN16OpenColorIO_v2_413ColorSpaceSet14addColorSpacesERKSt10shared_ptrIKS0_E
libOpenColorIO.so.2.4:_ZN16OpenColorIO_v2_413ColorSpaceSet16clearColorSpacesEv
libOpenColorIO.so.2.4:_ZN16OpenColorIO_v2_413ColorSpaceSet16removeColorSpaceEPKc
libOpenColorIO.so.2.4:_ZN16OpenColorIO_v2_413ColorSpaceSet17removeColorSpacesERKSt10shared_ptrIKS0_E
libOpenColorIO.so.2.4:_ZN16OpenColorIO_v2_413ColorSpaceSet6CreateEv
libOpenColorIO.so.2.4:_ZN16OpenColorIO_v2_413ColorSpaceSet7deleterEPS0_
libOpenColorIO.so.2.4:_ZN16OpenColorIO_v2_413ColorSpaceSetC1Ev
libOpenColorIO.so.2.4:_ZN16OpenColorIO_v2_413ColorSpaceSetC2Ev
libOpenColorIO.so.2.4:_ZN16OpenColorIO_v2_413ColorSpaceSetD1Ev
libOpenColorIO.so.2.4:_ZN16OpenColorIO_v2_413ColorSpaceSetD2Ev
libOpenColorIO.so.2.4:_ZN16OpenColorIO_v2_413FileTransform11setCDLStyleENS_8CDLStyleE
libOpenColorIO.so.2.4:_ZN16OpenColorIO_v2_413FileTransform12setDirectionENS_18TransformDirectionE
libOpenColorIO.so.2.4:_ZN16OpenColorIO_v2_413FileTransform13GetNumFormatsEv
libOpenColorIO.so.2.4:_ZN16OpenColorIO_v2_413FileTransform16setInterpolationENS_13InterpolationE
libOpenColorIO.so.2.4:_ZN16OpenColorIO_v2_413FileTransform20GetFormatNameByIndexEi
libOpenColorIO.so.2.4:_ZN16OpenColorIO_v2_413FileTransform25GetFormatExtensionByIndexEi
libOpenColorIO.so.2.4:_ZN16OpenColorIO_v2_413FileTransform26IsFormatExtensionSupportedEPKc
libOpenColorIO.so.2.4:_ZN16OpenColorIO_v2_413FileTransform6CreateEv
libOpenColorIO.so.2.4:_ZN16OpenColorIO_v2_413FileTransform6setSrcEPKc
libOpenColorIO.so.2.4:_ZN16OpenColorIO_v2_413FileTransform7deleterEPS0_
libOpenColorIO.so.2.4:_ZN16OpenColorIO_v2_413FileTransform8setCCCIdEPKc
libOpenColorIO.so.2.4:_ZN16OpenColorIO_v2_413FileTransformC1Ev
libOpenColorIO.so.2.4:_ZN16OpenColorIO_v2_413FileTransformC2Ev
libOpenColorIO.so.2.4:_ZN16OpenColorIO_v2_413FileTransformD0Ev
libOpenColorIO.so.2.4:_ZN16OpenColorIO_v2_413FileTransformD1Ev
libOpenColorIO.so.2.4:_ZN16OpenColorIO_v2_413FileTransformD2Ev
libOpenColorIO.so.2.4:_ZN16OpenColorIO_v2_413GetVersionHexEv
libOpenColorIO.so.2.4:_ZN16OpenColorIO_v2_413GpuShaderDesc16CreateShaderDescEv
libOpenColorIO.so.2.4:_ZN16OpenColorIO_v2_413GpuShaderDescC1Ev
libOpenColorIO.so.2.4:_ZN16OpenColorIO_v2_413GpuShaderDescC2Ev
libOpenColorIO.so.2.4:_ZN16OpenColorIO_v2_413GpuShaderDescD0Ev
libOpenColorIO.so.2.4:_ZN16OpenColorIO_v2_413GpuShaderDescD1Ev
libOpenColorIO.so.2.4:_ZN16OpenColorIO_v2_413GpuShaderDescD2Ev
libOpenColorIO.so.2.4:_ZN16OpenColorIO_v2_413LookTransform12setDirectionENS_18TransformDirectionE
libOpenColorIO.so.2.4:_ZN16OpenColorIO_v2_413LookTransform24GetLooksResultColorSpaceERKSt10shared_ptrIKNS_6ConfigEERKS1_IKNS_7ContextEEPKc
libOpenColorIO.so.2.4:_ZN16OpenColorIO_v2_413LookTransform27setSkipColorSpaceConversionEb
libOpenColorIO.so.2.4:_ZN16OpenColorIO_v2_413LookTransform6CreateEv
libOpenColorIO.so.2.4:_ZN16OpenColorIO_v2_413LookTransform6setDstEPKc
libOpenColorIO.so.2.4:_ZN16OpenColorIO_v2_413LookTransform6setSrcEPKc
libOpenColorIO.so.2.4:_ZN16OpenColorIO_v2_413LookTransform7deleterEPS0_
libOpenColorIO.so.2.4:_ZN16OpenColorIO_v2_413LookTransform8setLooksEPKc
libOpenColorIO.so.2.4:_ZN16OpenColorIO_v2_413LookTransformC1Ev
libOpenColorIO.so.2.4:_ZN16OpenColorIO_v2_413LookTransformC2Ev
libOpenColorIO.so.2.4:_ZN16OpenColorIO_v2_413LookTransformD0Ev
libOpenColorIO.so.2.4:_ZN16OpenColorIO_v2_413LookTransformD1Ev
libOpenColorIO.so.2.4:_ZN16OpenColorIO_v2_413LookTransformD2Ev
libOpenColorIO.so.2.4:_ZN16OpenColorIO_v2_413ViewTransform11addCategoryEPKc
libOpenColorIO.so.2.4:_ZN16OpenColorIO_v2_413ViewTransform12setTransformERKSt10shared_ptrIKNS_9TransformEENS_22ViewTransformDirectionE
libOpenColorIO.so.2.4:_ZN16OpenColorIO_v2_413ViewTransform14removeCategoryEPKc
libOpenColorIO.so.2.4:_ZN16OpenColorIO_v2_413ViewTransform14setDescriptionEPKc
libOpenColorIO.so.2.4:_ZN16OpenColorIO_v2_413ViewTransform15clearCategoriesEv
libOpenColorIO.so.2.4:_ZN16OpenColorIO_v2_413ViewTransform6CreateENS_18ReferenceSpaceTypeE
libOpenColorIO.so.2.4:_ZN16OpenColorIO_v2_413ViewTransform7deleterEPS0_
libOpenColorIO.so.2.4:_ZN16OpenColorIO_v2_413ViewTransform7setNameEPKc
libOpenColorIO.so.2.4:_ZN16OpenColorIO_v2_413ViewTransform9setFamilyEPKc
libOpenColorIO.so.2.4:_ZN16OpenColorIO_v2_413ViewTransformC1ENS_18ReferenceSpaceTypeE
libOpenColorIO.so.2.4:_ZN16OpenColorIO_v2_413ViewTransformC2ENS_18ReferenceSpaceTypeE
libOpenColorIO.so.2.4:_ZN16OpenColorIO_v2_413ViewTransformD1Ev
libOpenColorIO.so.2.4:_ZN16OpenColorIO_v2_413ViewTransformD2Ev
libOpenColorIO.so.2.4:_ZN16OpenColorIO_v2_414BoolFromStringEPKc
libOpenColorIO.so.2.4:_ZN16OpenColorIO_v2_414ClearAllCachesEv
libOpenColorIO.so.2.4:_ZN16OpenColorIO_v2_414GetEnvVariableEPKc
libOpenColorIO.so.2.4:_ZN16OpenColorIO_v2_414GradingPrimary12NoClampBlackEv
libOpenColorIO.so.2.4:_ZN16OpenColorIO_v2_414GradingPrimary12NoClampWhiteEv
libOpenColorIO.so.2.4:_ZN16OpenColorIO_v2_414GroupTransform18GetNumWriteFormatsEv
libOpenColorIO.so.2.4:_ZN16OpenColorIO_v2_414GroupTransform20GetFormatNameByIndexEi
libOpenColorIO.so.2.4:_ZN16OpenColorIO_v2_414GroupTransform25GetFormatExtensionByIndexEi
libOpenColorIO.so.2.4:_ZN16OpenColorIO_v2_414GroupTransform6CreateEv
libOpenColorIO.so.2.4:_ZN16OpenColorIO_v2_414Lut1DTransform6CreateEmb
libOpenColorIO.so.2.4:_ZN16OpenColorIO_v2_414Lut1DTransform6CreateEv
libOpenColorIO.so.2.4:_ZN16OpenColorIO_v2_414Lut3DTransform6CreateEm
libOpenColorIO.so.2.4:_ZN16OpenColorIO_v2_414Lut3DTransform6CreateEv
libOpenColorIO.so.2.4:_ZN16OpenColorIO_v2_414NamedTransform12GetTransformERKSt10shared_ptrIKS0_ENS_18TransformDirectionE
libOpenColorIO.so.2.4:_ZN16OpenColorIO_v2_414NamedTransform6CreateEv
libOpenColorIO.so.2.4:_ZN16OpenColorIO_v2_414RangeTransform6CreateEv
libOpenColorIO.so.2.4:_ZN16OpenColorIO_v2_414SetEnvVariableEPKcS1_
libOpenColorIO.so.2.4:_ZN16OpenColorIO_v2_414SystemMonitors3GetEv
libOpenColorIO.so.2.4:_ZN16OpenColorIO_v2_415BitDepthIsFloatENS_8BitDepthE
libOpenColorIO.so.2.4:_ZN16OpenColorIO_v2_415GetLoggingLevelEv
libOpenColorIO.so.2.4:_ZN16OpenColorIO_v2_415GradingRGBCurve6CreateENS_12GradingStyleE
libOpenColorIO.so.2.4:_ZN16OpenColorIO_v2_415GradingRGBCurve6CreateERKSt10shared_ptrIKNS_19GradingBSplineCurveEES6_S6_S6_
libOpenColorIO.so.2.4:_ZN16OpenColorIO_v2_415GradingRGBCurve6CreateERKSt10shared_ptrIKS0_E
libOpenColorIO.so.2.4:_ZN16OpenColorIO_v2_415MatrixTransform3FitEPdS1_PKdS3_S3_S3_
libOpenColorIO.so.2.4:_ZN16OpenColorIO_v2_415MatrixTransform3SatEPdS1_dPKd
libOpenColorIO.so.2.4:_ZN16OpenColorIO_v2_415MatrixTransform4ViewEPdS1_PiPKd
libOpenColorIO.so.2.4:_ZN16OpenColorIO_v2_415MatrixTransform5ScaleEPdS1_PKd
libOpenColorIO.so.2.4:_ZN16OpenColorIO_v2_415MatrixTransform6CreateEv
libOpenColorIO.so.2.4:_ZN16OpenColorIO_v2_415MatrixTransform8IdentityEPdS1_
libOpenColorIO.so.2.4:_ZN16OpenColorIO_v2_415PackedImageDescC1EPvllNS_15ChannelOrderingE
libOpenColorIO.so.2.4:_ZN16OpenColorIO_v2_415PackedImageDescC1EPvllNS_15ChannelOrderingENS_8BitDepthElll
libOpenColorIO.so.2.4:_ZN16OpenColorIO_v2_415PackedImageDescC1EPvlll
libOpenColorIO.so.2.4:_ZN16OpenColorIO_v2_415PackedImageDescC1EPvlllNS_8BitDepthElll
libOpenColorIO.so.2.4:_ZN16OpenColorIO_v2_415PackedImageDescC2EPvllNS_15ChannelOrderingE
libOpenColorIO.so.2.4:_ZN16OpenColorIO_v2_415PackedImageDescC2EPvllNS_15ChannelOrderingENS_8BitDepthElll
libOpenColorIO.so.2.4:_ZN16OpenColorIO_v2_415PackedImageDescC2EPvlll
libOpenColorIO.so.2.4:_ZN16OpenColorIO_v2_415PackedImageDescC2EPvlllNS_8BitDepthElll
libOpenColorIO.so.2.4:_ZN16OpenColorIO_v2_415PackedImageDescD0Ev
libOpenColorIO.so.2.4:_ZN16OpenColorIO_v2_415PackedImageDescD1Ev
libOpenColorIO.so.2.4:_ZN16OpenColorIO_v2_415PackedImageDescD2Ev
libOpenColorIO.so.2.4:_ZN16OpenColorIO_v2_415PlanarImageDescC1EPvS1_S1_S1_ll
libOpenColorIO.so.2.4:_ZN16OpenColorIO_v2_415PlanarImageDescC1EPvS1_S1_S1_llNS_8BitDepthEll
libOpenColorIO.so.2.4:_ZN16OpenColorIO_v2_415PlanarImageDescC2EPvS1_S1_S1_ll
libOpenColorIO.so.2.4:_ZN16OpenColorIO_v2_415PlanarImageDescC2EPvS1_S1_S1_llNS_8BitDepthEll
libOpenColorIO.so.2.4:_ZN16OpenColorIO_v2_415PlanarImageDescD0Ev
libOpenColorIO.so.2.4:_ZN16OpenColorIO_v2_415PlanarImageDescD1Ev
libOpenColorIO.so.2.4:_ZN16OpenColorIO_v2_415PlanarImageDescD2Ev
libOpenColorIO.so.2.4:_ZN16OpenColorIO_v2_415SetLoggingLevelENS_12LoggingLevelE
libOpenColorIO.so.2.4:_ZN16OpenColorIO_v2_416BitDepthToStringENS_8BitDepthE
libOpenColorIO.so.2.4:_ZN16OpenColorIO_v2_416BuiltinTransform6CreateEv
libOpenColorIO.so.2.4:_ZN16OpenColorIO_v2_416CDLStyleToStringENS_8CDLStyleE
libOpenColorIO.so.2.4:_ZN16OpenColorIO_v2_416GetCurrentConfigEv
libOpenColorIO.so.2.4:_ZN16OpenColorIO_v2_416GpuShaderCreator11setLanguageENS_11GpuLanguageE
libOpenColorIO.so.2.4:_ZN16OpenColorIO_v2_416GpuShaderCreator11setUniqueIDEPKc
libOpenColorIO.so.2.4:_ZN16OpenColorIO_v2_416GpuShaderCreator12setPixelNameEPKc
libOpenColorIO.so.2.4:_ZN16OpenColorIO_v2_416GpuShaderCreator15setFunctionNameEPKc
libOpenColorIO.so.2.4:_ZN16OpenColorIO_v2_416GpuShaderCreator16createShaderTextEPKcS2_S2_S2_S2_
libOpenColorIO.so.2.4:_ZN16OpenColorIO_v2_416GpuShaderCreator17setResourcePrefixEPKc
libOpenColorIO.so.2.4:_ZN16OpenColorIO_v2_416GpuShaderCreator18addDynamicPropertyERSt10shared_ptrINS_15DynamicPropertyEE
libOpenColorIO.so.2.4:_ZN16OpenColorIO_v2_416GpuShaderCreator20getNextResourceIndexEv
libOpenColorIO.so.2.4:_ZN16OpenColorIO_v2_416GpuShaderCreator21addToHelperShaderCodeEPKc
libOpenColorIO.so.2.4:_ZN16OpenColorIO_v2_416GpuShaderCreator22addToDeclareShaderCodeEPKc
libOpenColorIO.so.2.4:_ZN16OpenColorIO_v2_416GpuShaderCreator23addToFunctionShaderCodeEPKc
libOpenColorIO.so.2.4:_ZN16OpenColorIO_v2_416GpuShaderCreator29addToFunctionFooterShaderCodeEPKc
libOpenColorIO.so.2.4:_ZN16OpenColorIO_v2_416GpuShaderCreator29addToFunctionHeaderShaderCodeEPKc
libOpenColorIO.so.2.4:_ZN16OpenColorIO_v2_416GpuShaderCreator3endEv
libOpenColorIO.so.2.4:_ZN16OpenColorIO_v2_416GpuShaderCreator5beginEPKc
libOpenColorIO.so.2.4:_ZN16OpenColorIO_v2_416GpuShaderCreator8finalizeEv
libOpenColorIO.so.2.4:_ZN16OpenColorIO_v2_416GpuShaderCreatorC1Ev
libOpenColorIO.so.2.4:_ZN16OpenColorIO_v2_416GpuShaderCreatorC2Ev
libOpenColorIO.so.2.4:_ZN16OpenColorIO_v2_416GpuShaderCreatorD0Ev
libOpenColorIO.so.2.4:_ZN16OpenColorIO_v2_416GpuShaderCreatorD1Ev
libOpenColorIO.so.2.4:_ZN16OpenColorIO_v2_416GpuShaderCreatorD2Ev
libOpenColorIO.so.2.4:_ZN16OpenColorIO_v2_416SetCurrentConfigERKSt10shared_ptrIKNS_6ConfigEE
libOpenColorIO.so.2.4:_ZN16OpenColorIO_v2_416UnsetEnvVariableEPKc
libOpenColorIO.so.2.4:_ZN16OpenColorIO_v2_417ColorSpaceHelpers13AddColorSpaceERSt10shared_ptrINS_6ConfigEEPKcS6_S6_S6_
libOpenColorIO.so.2.4:_ZN16OpenColorIO_v2_417ExponentTransform6CreateEv
libOpenColorIO.so.2.4:_ZN16OpenColorIO_v2_417ProcessorMetadata6CreateEv
libOpenColorIO.so.2.4:_ZN16OpenColorIO_v2_417ProcessorMetadata7addFileEPKc
libOpenColorIO.so.2.4:_ZN16OpenColorIO_v2_417ProcessorMetadata7addLookEPKc
libOpenColorIO.so.2.4:_ZN16OpenColorIO_v2_417ProcessorMetadata7deleterEPS0_
libOpenColorIO.so.2.4:_ZN16OpenColorIO_v2_417ProcessorMetadataC1Ev
libOpenColorIO.so.2.4:_ZN16OpenColorIO_v2_417ProcessorMetadataC2Ev
libOpenColorIO.so.2.4:_ZN16OpenColorIO_v2_417ProcessorMetadataD1Ev
libOpenColorIO.so.2.4:_ZN16OpenColorIO_v2_417ProcessorMetadataD2Ev
libOpenColorIO.so.2.4:_ZN16OpenColorIO_v2_417ResolveConfigPathEPKc
libOpenColorIO.so.2.4:_ZN16OpenColorIO_v2_418AllocationToStringENS_10AllocationE
libOpenColorIO.so.2.4:_ZN16OpenColorIO_v2_418BitDepthFromStringEPKc
libOpenColorIO.so.2.4:_ZN16OpenColorIO_v2_418CDLStyleFromStringEPKc
libOpenColorIO.so.2.4:_ZN16OpenColorIO_v2_418DisplayViewHelpers12GetProcessorERKSt10shared_ptrIKNS_6ConfigEEPKcS8_S8_RKS1_IKNS_15MatrixTransformEENS_18TransformDirectionE
libOpenColorIO.so.2.4:_ZN16OpenColorIO_v2_418DisplayViewHelpers12GetProcessorERKSt10shared_ptrIKNS_6ConfigEERKS1_IKNS_7ContextEEPKcSD_SD_RKS1_IKNS_15MatrixTransformEENS_18TransformDirectionE
libOpenColorIO.so.2.4:_ZN16OpenColorIO_v2_418DisplayViewHelpers14AddDisplayViewERSt10shared_ptrINS_6ConfigEEPKcS6_S6_S6_S6_S6_S6_S6_S6_
libOpenColorIO.so.2.4:_ZN16OpenColorIO_v2_418DisplayViewHelpers17RemoveDisplayViewERSt10shared_ptrINS_6ConfigEEPKcS6_
libOpenColorIO.so.2.4:_ZN16OpenColorIO_v2_418DisplayViewHelpers20GetIdentityProcessorERKSt10shared_ptrIKNS_6ConfigEE
libOpenColorIO.so.2.4:_ZN16OpenColorIO_v2_418LogAffineTransform6CreateEv
libOpenColorIO.so.2.4:_ZN16OpenColorIO_v2_418LogCameraTransform6CreateERA3_Kd
libOpenColorIO.so.2.4:_ZN16OpenColorIO_v2_418RangeStyleToStringENS_10RangeStyleE
libOpenColorIO.so.2.4:_ZN16OpenColorIO_v2_418SetLoggingFunctionESt8functionIFvPKcEE
libOpenColorIO.so.2.4:_ZN16OpenColorIO_v2_419AllocationTransform12setDirectionENS_18TransformDirectionE
libOpenColorIO.so.2.4:_ZN16OpenColorIO_v2_419AllocationTransform13setAllocationENS_10AllocationE
libOpenColorIO.so.2.4:_ZN16OpenColorIO_v2_419AllocationTransform6CreateEv
libOpenColorIO.so.2.4:_ZN16OpenColorIO_v2_419AllocationTransform7deleterEPS0_
libOpenColorIO.so.2.4:_ZN16OpenColorIO_v2_419AllocationTransform7setVarsEiPKf
libOpenColorIO.so.2.4:_ZN16OpenColorIO_v2_419AllocationTransformC1Ev
libOpenColorIO.so.2.4:_ZN16OpenColorIO_v2_419AllocationTransformC2Ev
libOpenColorIO.so.2.4:_ZN16OpenColorIO_v2_419AllocationTransformD0Ev
libOpenColorIO.so.2.4:_ZN16OpenColorIO_v2_419AllocationTransformD1Ev
libOpenColorIO.so.2.4:_ZN16OpenColorIO_v2_419AllocationTransformD2Ev
libOpenColorIO.so.2.4:_ZN16OpenColorIO_v2_419ColorSpaceTransform12setDirectionENS_18TransformDirectionE
libOpenColorIO.so.2.4:_ZN16OpenColorIO_v2_419ColorSpaceTransform13setDataBypassEb
libOpenColorIO.so.2.4:_ZN16OpenColorIO_v2_419ColorSpaceTransform6CreateEv
libOpenColorIO.so.2.4:_ZN16OpenColorIO_v2_419ColorSpaceTransform6setDstEPKc
libOpenColorIO.so.2.4:_ZN16OpenColorIO_v2_419ColorSpaceTransform6setSrcEPKc
libOpenColorIO.so.2.4:_ZN16OpenColorIO_v2_419ColorSpaceTransform7deleterEPS0_
libOpenColorIO.so.2.4:_ZN16OpenColorIO_v2_419ColorSpaceTransformC1Ev
libOpenColorIO.so.2.4:_ZN16OpenColorIO_v2_419ColorSpaceTransformC2Ev
libOpenColorIO.so.2.4:_ZN16OpenColorIO_v2_419ColorSpaceTransformD0Ev
libOpenColorIO.so.2.4:_ZN16OpenColorIO_v2_419ColorSpaceTransformD1Ev
libOpenColorIO.so.2.4:_ZN16OpenColorIO_v2_419ColorSpaceTransformD2Ev
libOpenColorIO.so.2.4:_ZN16OpenColorIO_v2_419ExtractOCIOZArchiveEPKcS1_
libOpenColorIO.so.2.4:_ZN16OpenColorIO_v2_419GpuLanguageToStringENS_11GpuLanguageE
libOpenColorIO.so.2.4:_ZN16OpenColorIO_v2_419GradingBSplineCurve6CreateESt16initializer_listINS_19GradingControlPointEE
libOpenColorIO.so.2.4:_ZN16OpenColorIO_v2_419GradingBSplineCurve6CreateEm
libOpenColorIO.so.2.4:_ZN16OpenColorIO_v2_420AllocationFromStringEPKc
libOpenColorIO.so.2.4:_ZN16OpenColorIO_v2_420ColorSpaceMenuHelper6CreateESt10shared_ptrIKNS_24ColorSpaceMenuParametersEE
libOpenColorIO.so.2.4:_ZN16OpenColorIO_v2_420DisplayViewTransform10setDisplayEPKc
libOpenColorIO.so.2.4:_ZN16OpenColorIO_v2_420DisplayViewTransform12setDirectionENS_18TransformDirectionE
libOpenColorIO.so.2.4:_ZN16OpenColorIO_v2_420DisplayViewTransform13setDataBypassEb
libOpenColorIO.so.2.4:_ZN16OpenColorIO_v2_420DisplayViewTransform14setLooksBypassEb
libOpenColorIO.so.2.4:_ZN16OpenColorIO_v2_420DisplayViewTransform6CreateEv
libOpenColorIO.so.2.4:_ZN16OpenColorIO_v2_420DisplayViewTransform6setSrcEPKc
libOpenColorIO.so.2.4:_ZN16OpenColorIO_v2_420DisplayViewTransform7deleterEPS0_
libOpenColorIO.so.2.4:_ZN16OpenColorIO_v2_420DisplayViewTransform7setViewEPKc
libOpenColorIO.so.2.4:_ZN16OpenColorIO_v2_420DisplayViewTransformC1Ev
libOpenColorIO.so.2.4:_ZN16OpenColorIO_v2_420DisplayViewTransformC2Ev
libOpenColorIO.so.2.4:_ZN16OpenColorIO_v2_420DisplayViewTransformD0Ev
libOpenColorIO.so.2.4:_ZN16OpenColorIO_v2_420DisplayViewTransformD1Ev
libOpenColorIO.so.2.4:_ZN16OpenColorIO_v2_420DisplayViewTransformD2Ev
libOpenColorIO.so.2.4:_ZN16OpenColorIO_v2_420DynamicPropertyValue13AsGradingToneERSt10shared_ptrINS_15DynamicPropertyEE
libOpenColorIO.so.2.4:_ZN16OpenColorIO_v2_420DynamicPropertyValue16AsGradingPrimaryERSt10shared_ptrINS_15DynamicPropertyEE
libOpenColorIO.so.2.4:_ZN16OpenColorIO_v2_420DynamicPropertyValue17AsGradingRGBCurveERSt10shared_ptrINS_15DynamicPropertyEE
libOpenColorIO.so.2.4:_ZN16OpenColorIO_v2_420DynamicPropertyValue8AsDoubleERSt10shared_ptrINS_15DynamicPropertyEE
libOpenColorIO.so.2.4:_ZN16OpenColorIO_v2_420ExceptionMissingFileC1EPKc
libOpenColorIO.so.2.4:_ZN16OpenColorIO_v2_420ExceptionMissingFileC1ERKS0_
libOpenColorIO.so.2.4:_ZN16OpenColorIO_v2_420ExceptionMissingFileC2EPKc
libOpenColorIO.so.2.4:_ZN16OpenColorIO_v2_420ExceptionMissingFileC2ERKS0_
libOpenColorIO.so.2.4:_ZN16OpenColorIO_v2_420ExceptionMissingFileD0Ev
libOpenColorIO.so.2.4:_ZN16OpenColorIO_v2_420ExceptionMissingFileD1Ev
libOpenColorIO.so.2.4:_ZN16OpenColorIO_v2_420ExceptionMissingFileD2Ev
libOpenColorIO.so.2.4:_ZN16OpenColorIO_v2_420GradingStyleToStringENS_12GradingStyleE
libOpenColorIO.so.2.4:_ZN16OpenColorIO_v2_420GradingToneTransform6CreateENS_12GradingStyleE
libOpenColorIO.so.2.4:_ZN16OpenColorIO_v2_420IsEnvVariablePresentEPKc
libOpenColorIO.so.2.4:_ZN16OpenColorIO_v2_420LoggingLevelToStringENS_12LoggingLevelE
libOpenColorIO.so.2.4:_ZN16OpenColorIO_v2_420RangeStyleFromStringEPKc
libOpenColorIO.so.2.4:_ZN16OpenColorIO_v2_421BuiltinConfigRegistry3GetEv
libOpenColorIO.so.2.4:_ZN16OpenColorIO_v2_421GpuLanguageFromStringEPKc
libOpenColorIO.so.2.4:_ZN16OpenColorIO_v2_421InterpolationToStringENS_13InterpolationE
libOpenColorIO.so.2.4:_ZN16OpenColorIO_v2_421LegacyViewingPipeline6CreateEv
libOpenColorIO.so.2.4:_ZN16OpenColorIO_v2_421NegativeStyleToStringENS_13NegativeStyleE
libOpenColorIO.so.2.4:_ZN16OpenColorIO_v2_422FixedFunctionTransform6CreateENS_18FixedFunctionStyleE
libOpenColorIO.so.2.4:_ZN16OpenColorIO_v2_422FixedFunctionTransform6CreateENS_18FixedFunctionStyleEPKdm
libOpenColorIO.so.2.4:_ZN16OpenColorIO_v2_422GradingStyleFromStringEPKc
libOpenColorIO.so.2.4:_ZN16OpenColorIO_v2_422LoggingLevelFromStringEPKc
libOpenColorIO.so.2.4:_ZN16OpenColorIO_v2_422SetComputeHashFunctionESt8functionIFNSt7__cxx1112basic_stringIcSt11char_traitsIcESaIcEEERKS6_EE
libOpenColorIO.so.2.4:_ZN16OpenColorIO_v2_423EnvironmentModeToStringENS_15EnvironmentModeE
libOpenColorIO.so.2.4:_ZN16OpenColorIO_v2_423GradingPrimaryTransform6CreateENS_12GradingStyleE
libOpenColorIO.so.2.4:_ZN16OpenColorIO_v2_423InterpolationFromStringEPKc
libOpenColorIO.so.2.4:_ZN16OpenColorIO_v2_423MixingColorSpaceManager6CreateERSt10shared_ptrIKNS_6ConfigEE
libOpenColorIO.so.2.4:_ZN16OpenColorIO_v2_423NegativeStyleFromStringEPKc
libOpenColorIO.so.2.4:_ZN16OpenColorIO_v2_424BuiltinTransformRegistry3GetEv
libOpenColorIO.so.2.4:_ZN16OpenColorIO_v2_424ColorSpaceMenuParameters6CreateESt10shared_ptrIKNS_6ConfigEE
libOpenColorIO.so.2.4:_ZN16OpenColorIO_v2_424GradingRGBCurveTransform6CreateENS_12GradingStyleE
libOpenColorIO.so.2.4:_ZN16OpenColorIO_v2_424ResetComputeHashFunctionEv
libOpenColorIO.so.2.4:_ZN16OpenColorIO_v2_425EnvironmentModeFromStringEPKc
libOpenColorIO.so.2.4:_ZN16OpenColorIO_v2_425ExposureContrastTransform6CreateEv
libOpenColorIO.so.2.4:_ZN16OpenColorIO_v2_426CombineTransformDirectionsENS_18TransformDirectionES0_
libOpenColorIO.so.2.4:_ZN16OpenColorIO_v2_426FixedFunctionStyleToStringENS_18FixedFunctionStyleE
libOpenColorIO.so.2.4:_ZN16OpenColorIO_v2_426TransformDirectionToStringENS_18TransformDirectionE
libOpenColorIO.so.2.4:_ZN16OpenColorIO_v2_427ExponentWithLinearTransform6CreateEv
libOpenColorIO.so.2.4:_ZN16OpenColorIO_v2_428FixedFunctionStyleFromStringEPKc
libOpenColorIO.so.2.4:_ZN16OpenColorIO_v2_428GetInverseTransformDirectionENS_18TransformDirectionE
libOpenColorIO.so.2.4:_ZN16OpenColorIO_v2_428TransformDirectionFromStringEPKc
libOpenColorIO.so.2.4:_ZN16OpenColorIO_v2_429ExposureContrastStyleToStringENS_21ExposureContrastStyleE
libOpenColorIO.so.2.4:_ZN16OpenColorIO_v2_429ResetToDefaultLoggingFunctionEv
libOpenColorIO.so.2.4:_ZN16OpenColorIO_v2_431ExposureContrastStyleFromStringEPKc
libOpenColorIO.so.2.4:_ZN16OpenColorIO_v2_44Look12setTransformERKSt10shared_ptrIKNS_9TransformEE
libOpenColorIO.so.2.4:_ZN16OpenColorIO_v2_44Look14setDescriptionEPKc
libOpenColorIO.so.2.4:_ZN16OpenColorIO_v2_44Look15setProcessSpaceEPKc
libOpenColorIO.so.2.4:_ZN16OpenColorIO_v2_44Look19setInverseTransformERKSt10shared_ptrIKNS_9TransformEE
libOpenColorIO.so.2.4:_ZN16OpenColorIO_v2_44Look6CreateEv
libOpenColorIO.so.2.4:_ZN16OpenColorIO_v2_44Look7deleterEPS0_
libOpenColorIO.so.2.4:_ZN16OpenColorIO_v2_44Look7setNameEPKc
libOpenColorIO.so.2.4:_ZN16OpenColorIO_v2_44LookC1Ev
libOpenColorIO.so.2.4:_ZN16OpenColorIO_v2_44LookC2Ev
libOpenColorIO.so.2.4:_ZN16OpenColorIO_v2_44LookD1Ev
libOpenColorIO.so.2.4:_ZN16OpenColorIO_v2_44LookD2Ev
libOpenColorIO.so.2.4:_ZN16OpenColorIO_v2_45Baker11setCubeSizeEi
libOpenColorIO.so.2.4:_ZN16OpenColorIO_v2_45Baker13getNumFormatsEv
libOpenColorIO.so.2.4:_ZN16OpenColorIO_v2_45Baker13setInputSpaceEPKc
libOpenColorIO.so.2.4:_ZN16OpenColorIO_v2_45Baker13setShaperSizeEi
libOpenColorIO.so.2.4:_ZN16OpenColorIO_v2_45Baker14setDisplayViewEPKcS2_
libOpenColorIO.so.2.4:_ZN16OpenColorIO_v2_45Baker14setShaperSpaceEPKc
libOpenColorIO.so.2.4:_ZN16OpenColorIO_v2_45Baker14setTargetSpaceEPKc
libOpenColorIO.so.2.4:_ZN16OpenColorIO_v2_45Baker17getFormatMetadataEv
libOpenColorIO.so.2.4:_ZN16OpenColorIO_v2_45Baker20getFormatNameByIndexEi
libOpenColorIO.so.2.4:_ZN16OpenColorIO_v2_45Baker25getFormatExtensionByIndexEi
libOpenColorIO.so.2.4:_ZN16OpenColorIO_v2_45Baker6CreateEv
libOpenColorIO.so.2.4:_ZN16OpenColorIO_v2_45Baker7deleterEPS0_
libOpenColorIO.so.2.4:_ZN16OpenColorIO_v2_45Baker8setLooksEPKc
libOpenColorIO.so.2.4:_ZN16OpenColorIO_v2_45Baker9setConfigERKSt10shared_ptrIKNS_6ConfigEE
libOpenColorIO.so.2.4:_ZN16OpenColorIO_v2_45Baker9setFormatEPKc
libOpenColorIO.so.2.4:_ZN16OpenColorIO_v2_45BakerC1Ev
libOpenColorIO.so.2.4:_ZN16OpenColorIO_v2_45BakerC2Ev
libOpenColorIO.so.2.4:_ZN16OpenColorIO_v2_45BakerD1Ev
libOpenColorIO.so.2.4:_ZN16OpenColorIO_v2_45BakerD2Ev
libOpenColorIO.so.2.4:_ZN16OpenColorIO_v2_46Config10clearLooksEv
libOpenColorIO.so.2.4:_ZN16OpenColorIO_v2_46Config10setVersionEjj
libOpenColorIO.so.2.4:_ZN16OpenColorIO_v2_46Config12setFileRulesESt10shared_ptrIKNS_9FileRulesEE
libOpenColorIO.so.2.4:_ZN16OpenColorIO_v2_46Config13CreateFromEnvEv
libOpenColorIO.so.2.4:_ZN16OpenColorIO_v2_46Config13addColorSpaceERKSt10shared_ptrIKNS_10ColorSpaceEE
libOpenColorIO.so.2.4:_ZN16OpenColorIO_v2_46Config13addSearchPathEPKc
libOpenColorIO.so.2.4:_ZN16OpenColorIO_v2_46Config13addSharedViewEPKcS2_S2_S2_S2_S2_
libOpenColorIO.so.2.4:_ZN16OpenColorIO_v2_46Config13clearDisplaysEv
libOpenColorIO.so.2.4:_ZN16OpenColorIO_v2_46Config13setSearchPathEPKc
libOpenColorIO.so.2.4:_ZN16OpenColorIO_v2_46Config13setWorkingDirEPKc
libOpenColorIO.so.2.4:_ZN16OpenColorIO_v2_46Config14CreateFromFileEPKc
libOpenColorIO.so.2.4:_ZN16OpenColorIO_v2_46Config14addDisplayViewEPKcS2_S2_S2_
libOpenColorIO.so.2.4:_ZN16OpenColorIO_v2_46Config14addDisplayViewEPKcS2_S2_S2_S2_S2_S2_
libOpenColorIO.so.2.4:_ZN16OpenColorIO_v2_46Config14setActiveViewsEPKc
libOpenColorIO.so.2.4:_ZN16OpenColorIO_v2_46Config14setDescriptionEPKc
libOpenColorIO.so.2.4:_ZN16OpenColorIO_v2_46Config15loadEnvironmentEv
libOpenColorIO.so.2.4:_ZN16OpenColorIO_v2_46Config15setMajorVersionEj
libOpenColorIO.so.2.4:_ZN16OpenColorIO_v2_46Config15setMinorVersionEj
libOpenColorIO.so.2.4:_ZN16OpenColorIO_v2_46Config15setViewingRulesESt10shared_ptrIKNS_12ViewingRulesEE
libOpenColorIO.so.2.4:_ZN16OpenColorIO_v2_46Config16CreateFromStreamERSi
libOpenColorIO.so.2.4:_ZN16OpenColorIO_v2_46Config16addViewTransformERKSt10shared_ptrIKNS_13ViewTransformEE
libOpenColorIO.so.2.4:_ZN16OpenColorIO_v2_46Config16clearColorSpacesEv
libOpenColorIO.so.2.4:_ZN16OpenColorIO_v2_46Config16clearSearchPathsEv
libOpenColorIO.so.2.4:_ZN16OpenColorIO_v2_46Config16removeColorSpaceEPKc
libOpenColorIO.so.2.4:_ZN16OpenColorIO_v2_46Config16removeSharedViewEPKc
libOpenColorIO.so.2.4:_ZN16OpenColorIO_v2_46Config16setConfigIOProxyESt10shared_ptrINS_13ConfigIOProxyEE
libOpenColorIO.so.2.4:_ZN16OpenColorIO_v2_46Config17addEnvironmentVarEPKcS2_
libOpenColorIO.so.2.4:_ZN16OpenColorIO_v2_46Config17addNamedTransformERKSt10shared_ptrIKNS_14NamedTransformEE
libOpenColorIO.so.2.4:_ZN16OpenColorIO_v2_46Config17removeDisplayViewEPKcS2_
libOpenColorIO.so.2.4:_ZN16OpenColorIO_v2_46Config17setActiveDisplaysEPKc
libOpenColorIO.so.2.4:_ZN16OpenColorIO_v2_46Config18setEnvironmentModeENS_15EnvironmentModeE
libOpenColorIO.so.2.4:_ZN16OpenColorIO_v2_46Config18setFamilySeparatorEc
libOpenColorIO.so.2.4:_ZN16OpenColorIO_v2_46Config19clearProcessorCacheEv
libOpenColorIO.so.2.4:_ZN16OpenColorIO_v2_46Config19clearViewTransformsEv
libOpenColorIO.so.2.4:_ZN16OpenColorIO_v2_46Config19clearVirtualDisplayEv
libOpenColorIO.so.2.4:_ZN16OpenColorIO_v2_46Config19setDefaultLumaCoefsEPKd
libOpenColorIO.so.2.4:_ZN16OpenColorIO_v2_46Config20addDisplaySharedViewEPKcS2_
libOpenColorIO.so.2.4:_ZN16OpenColorIO_v2_46Config20clearEnvironmentVarsEv
libOpenColorIO.so.2.4:_ZN16OpenColorIO_v2_46Config20clearNamedTransformsEv
libOpenColorIO.so.2.4:_ZN16OpenColorIO_v2_46Config21addVirtualDisplayViewEPKcS2_S2_S2_S2_S2_
libOpenColorIO.so.2.4:_ZN16OpenColorIO_v2_46Config22setInactiveColorSpacesEPKc
libOpenColorIO.so.2.4:_ZN16OpenColorIO_v2_46Config22upgradeToLatestVersionEv
libOpenColorIO.so.2.4:_ZN16OpenColorIO_v2_46Config23CreateFromBuiltinConfigEPKc
libOpenColorIO.so.2.4:_ZN16OpenColorIO_v2_46Config23CreateFromConfigIOProxyESt10shared_ptrINS_13ConfigIOProxyEE
libOpenColorIO.so.2.4:_ZN16OpenColorIO_v2_46Config23GetProcessorFromConfigsERKSt10shared_ptrIKNS_7ContextEERKS1_IKS0_EPKcS6_SA_SC_
libOpenColorIO.so.2.4:_ZN16OpenColorIO_v2_46Config23GetProcessorFromConfigsERKSt10shared_ptrIKNS_7ContextEERKS1_IKS0_EPKcS6_SA_SC_SC_NS_18TransformDirectionE
libOpenColorIO.so.2.4:_ZN16OpenColorIO_v2_46Config23GetProcessorFromConfigsERKSt10shared_ptrIKNS_7ContextEERKS1_IKS0_EPKcSC_S6_SA_SC_SC_
libOpenColorIO.so.2.4:_ZN16OpenColorIO_v2_46Config23GetProcessorFromConfigsERKSt10shared_ptrIKNS_7ContextEERKS1_IKS0_EPKcSC_S6_SA_SC_SC_SC_NS_18TransformDirectionE
libOpenColorIO.so.2.4:_ZN16OpenColorIO_v2_46Config23GetProcessorFromConfigsERKSt10shared_ptrIKS0_EPKcS5_S7_
libOpenColorIO.so.2.4:_ZN16OpenColorIO_v2_46Config23GetProcessorFromConfigsERKSt10shared_ptrIKS0_EPKcS5_S7_S7_NS_18TransformDirectionE
libOpenColorIO.so.2.4:_ZN16OpenColorIO_v2_46Config23GetProcessorFromConfigsERKSt10shared_ptrIKS0_EPKcS7_S5_S7_S7_
libOpenColorIO.so.2.4:_ZN16OpenColorIO_v2_46Config23GetProcessorFromConfigsERKSt10shared_ptrIKS0_EPKcS7_S5_S7_S7_S7_NS_18TransformDirectionE
libOpenColorIO.so.2.4:_ZN16OpenColorIO_v2_46Config23setStrictParsingEnabledEb
libOpenColorIO.so.2.4:_ZN16OpenColorIO_v2_46Config24IdentifyInterchangeSpaceEPPKcS3_RKSt10shared_ptrIKS0_ES2_S8_S2_
libOpenColorIO.so.2.4:_ZN16OpenColorIO_v2_46Config24removeVirtualDisplayViewEPKc
libOpenColorIO.so.2.4:_ZN16OpenColorIO_v2_46Config25GetDefaultFamilySeparatorEv
libOpenColorIO.so.2.4:_ZN16OpenColorIO_v2_46Config25IdentifyBuiltinColorSpaceERKSt10shared_ptrIKS0_ES5_PKc
libOpenColorIO.so.2.4:_ZN16OpenColorIO_v2_46Config27addVirtualDisplaySharedViewEPKc
libOpenColorIO.so.2.4:_ZN16OpenColorIO_v2_46Config27setDefaultViewTransformNameEPKc
libOpenColorIO.so.2.4:_ZN16OpenColorIO_v2_46Config31GetProcessorToBuiltinColorSpaceESt10shared_ptrIKS0_EPKcS5_
libOpenColorIO.so.2.4:_ZN16OpenColorIO_v2_46Config32instantiateDisplayFromICCProfileEPKc
libOpenColorIO.so.2.4:_ZN16OpenColorIO_v2_46Config33GetProcessorFromBuiltinColorSpaceEPKcSt10shared_ptrIKS0_ES2_
libOpenColorIO.so.2.4:_ZN16OpenColorIO_v2_46Config33instantiateDisplayFromMonitorNameEPKc
libOpenColorIO.so.2.4:_ZN16OpenColorIO_v2_46Config4Impl13resetCacheIDsEv
libOpenColorIO.so.2.4:_ZN16OpenColorIO_v2_46Config4Impl24refreshActiveColorSpacesEv
libOpenColorIO.so.2.4:_ZN16OpenColorIO_v2_46Config4Impl4ReadERSiPKc
libOpenColorIO.so.2.4:_ZN16OpenColorIO_v2_46Config4Impl4ReadERSiSt10shared_ptrINS_13ConfigIOProxyEE
libOpenColorIO.so.2.4:_ZN16OpenColorIO_v2_46Config6CreateEv
libOpenColorIO.so.2.4:_ZN16OpenColorIO_v2_46Config7addLookERKSt10shared_ptrIKNS_4LookEE
libOpenColorIO.so.2.4:_ZN16OpenColorIO_v2_46Config7deleterEPS0_
libOpenColorIO.so.2.4:_ZN16OpenColorIO_v2_46Config7setNameEPKc
libOpenColorIO.so.2.4:_ZN16OpenColorIO_v2_46Config7setRoleEPKcS2_
libOpenColorIO.so.2.4:_ZN16OpenColorIO_v2_46Config9CreateRawEv
libOpenColorIO.so.2.4:_ZN16OpenColorIO_v2_46ConfigC1Ev
libOpenColorIO.so.2.4:_ZN16OpenColorIO_v2_46ConfigC2Ev
libOpenColorIO.so.2.4:_ZN16OpenColorIO_v2_46ConfigD1Ev
libOpenColorIO.so.2.4:_ZN16OpenColorIO_v2_46ConfigD2Ev
libOpenColorIO.so.2.4:_ZN16OpenColorIO_v2_47Context12setStringVarEPKcS2_
libOpenColorIO.so.2.4:_ZN16OpenColorIO_v2_47Context13addSearchPathEPKc
libOpenColorIO.so.2.4:_ZN16OpenColorIO_v2_47Context13addStringVarsERKSt10shared_ptrIKS0_E
libOpenColorIO.so.2.4:_ZN16OpenColorIO_v2_47Context13setSearchPathEPKc
libOpenColorIO.so.2.4:_ZN16OpenColorIO_v2_47Context13setWorkingDirEPKc
libOpenColorIO.so.2.4:_ZN16OpenColorIO_v2_47Context15clearStringVarsEv
libOpenColorIO.so.2.4:_ZN16OpenColorIO_v2_47Context15loadEnvironmentEv
libOpenColorIO.so.2.4:_ZN16OpenColorIO_v2_47Context16clearSearchPathsEv
libOpenColorIO.so.2.4:_ZN16OpenColorIO_v2_47Context16setConfigIOProxyESt10shared_ptrINS_13ConfigIOProxyEE
libOpenColorIO.so.2.4:_ZN16OpenColorIO_v2_47Context18setEnvironmentModeENS_15EnvironmentModeE
libOpenColorIO.so.2.4:_ZN16OpenColorIO_v2_47Context6CreateEv
libOpenColorIO.so.2.4:_ZN16OpenColorIO_v2_47Context7deleterEPS0_
libOpenColorIO.so.2.4:_ZN16OpenColorIO_v2_47ContextC1Ev
libOpenColorIO.so.2.4:_ZN16OpenColorIO_v2_47ContextC2Ev
libOpenColorIO.so.2.4:_ZN16OpenColorIO_v2_47ContextD1Ev
libOpenColorIO.so.2.4:_ZN16OpenColorIO_v2_47ContextD2Ev
libOpenColorIO.so.2.4:_ZN16OpenColorIO_v2_49ExceptionC1EPKc
libOpenColorIO.so.2.4:_ZN16OpenColorIO_v2_49ExceptionC1ERKS0_
libOpenColorIO.so.2.4:_ZN16OpenColorIO_v2_49ExceptionC2EPKc
libOpenColorIO.so.2.4:_ZN16OpenColorIO_v2_49ExceptionC2ERKS0_
libOpenColorIO.so.2.4:_ZN16OpenColorIO_v2_49ExceptionD0Ev
libOpenColorIO.so.2.4:_ZN16OpenColorIO_v2_49ExceptionD1Ev
libOpenColorIO.so.2.4:_ZN16OpenColorIO_v2_49ExceptionD2Ev
libOpenColorIO.so.2.4:_ZN16OpenColorIO_v2_49FileRules10insertRuleEmPKcS2_S2_
libOpenColorIO.so.2.4:_ZN16OpenColorIO_v2_49FileRules10insertRuleEmPKcS2_S2_S2_
libOpenColorIO.so.2.4:_ZN16OpenColorIO_v2_49FileRules10removeRuleEm
libOpenColorIO.so.2.4:_ZN16OpenColorIO_v2_49FileRules10setPatternEmPKc
libOpenColorIO.so.2.4:_ZN16OpenColorIO_v2_49FileRules12setCustomKeyEmPKcS2_
libOpenColorIO.so.2.4:_ZN16OpenColorIO_v2_49FileRules12setExtensionEmPKc
libOpenColorIO.so.2.4:_ZN16OpenColorIO_v2_49FileRules13setColorSpaceEmPKc
libOpenColorIO.so.2.4:_ZN16OpenColorIO_v2_49FileRules20decreaseRulePriorityEm
libOpenColorIO.so.2.4:_ZN16OpenColorIO_v2_49FileRules20increaseRulePriorityEm
libOpenColorIO.so.2.4:_ZN16OpenColorIO_v2_49FileRules20insertPathSearchRuleEm
libOpenColorIO.so.2.4:_ZN16OpenColorIO_v2_49FileRules24setDefaultRuleColorSpaceEPKc
libOpenColorIO.so.2.4:_ZN16OpenColorIO_v2_49FileRules4Impl8moveRuleEmi
libOpenColorIO.so.2.4:_ZN16OpenColorIO_v2_49FileRules4ImplC1Ev
libOpenColorIO.so.2.4:_ZN16OpenColorIO_v2_49FileRules4ImplC2Ev
libOpenColorIO.so.2.4:_ZN16OpenColorIO_v2_49FileRules4ImplaSERKS1_
libOpenColorIO.so.2.4:_ZN16OpenColorIO_v2_49FileRules6CreateEv
libOpenColorIO.so.2.4:_ZN16OpenColorIO_v2_49FileRules7deleterEPS0_
libOpenColorIO.so.2.4:_ZN16OpenColorIO_v2_49FileRules8setRegexEmPKc
libOpenColorIO.so.2.4:_ZN16OpenColorIO_v2_49FileRulesC1Ev
libOpenColorIO.so.2.4:_ZN16OpenColorIO_v2_49FileRulesC2Ev
libOpenColorIO.so.2.4:_ZN16OpenColorIO_v2_49FileRulesD0Ev
libOpenColorIO.so.2.4:_ZN16OpenColorIO_v2_49FileRulesD1Ev
libOpenColorIO.so.2.4:_ZN16OpenColorIO_v2_49FileRulesD2Ev
libOpenColorIO.so.2.4:_ZN16OpenColorIO_v2_49ImageDescC1Ev
libOpenColorIO.so.2.4:_ZN16OpenColorIO_v2_49ImageDescC2Ev
libOpenColorIO.so.2.4:_ZN16OpenColorIO_v2_49ImageDescD0Ev
libOpenColorIO.so.2.4:_ZN16OpenColorIO_v2_49ImageDescD1Ev
libOpenColorIO.so.2.4:_ZN16OpenColorIO_v2_49ImageDescD2Ev
libOpenColorIO.so.2.4:_ZN16OpenColorIO_v2_49Processor4Impl11concatenateERSt10shared_ptrIKS0_ES5_
libOpenColorIO.so.2.4:_ZN16OpenColorIO_v2_49Processor4Impl12setTransformERKNS_6ConfigERKSt10shared_ptrIKNS_7ContextEERKS5_IKNS_9TransformEENS_18TransformDirectionE
libOpenColorIO.so.2.4:_ZN16OpenColorIO_v2_49Processor4Impl15computeMetadataEv
libOpenColorIO.so.2.4:_ZN16OpenColorIO_v2_49Processor4Impl22setProcessorCacheFlagsENS_19ProcessorCacheFlagsE
libOpenColorIO.so.2.4:_ZN16OpenColorIO_v2_49Processor4Impl23setColorSpaceConversionERKNS_6ConfigERKSt10shared_ptrIKNS_7ContextEERKS5_IKNS_10ColorSpaceEESF_
libOpenColorIO.so.2.4:_ZN16OpenColorIO_v2_49Processor4ImplC1Ev
libOpenColorIO.so.2.4:_ZN16OpenColorIO_v2_49Processor4ImplC2Ev
libOpenColorIO.so.2.4:_ZN16OpenColorIO_v2_49Processor4ImplD1Ev
libOpenColorIO.so.2.4:_ZN16OpenColorIO_v2_49Processor4ImplD2Ev
libOpenColorIO.so.2.4:_ZN16OpenColorIO_v2_49Processor4ImplaSERKS1_
libOpenColorIO.so.2.4:_ZN16OpenColorIO_v2_49Processor6CreateEv
libOpenColorIO.so.2.4:_ZN16OpenColorIO_v2_49Processor7deleterEPS0_
libOpenColorIO.so.2.4:_ZN16OpenColorIO_v2_49ProcessorC1Ev
libOpenColorIO.so.2.4:_ZN16OpenColorIO_v2_49ProcessorC2Ev
libOpenColorIO.so.2.4:_ZN16OpenColorIO_v2_49ProcessorD1Ev
libOpenColorIO.so.2.4:_ZN16OpenColorIO_v2_49ProcessorD2Ev
libOpenColorIO.so.2.4:_ZN16OpenColorIO_v2_4aaERKSt10shared_ptrIKNS_13ColorSpaceSetEES5_
libOpenColorIO.so.2.4:_ZN16OpenColorIO_v2_4eqERKNS_11GradingRGBMES2_
libOpenColorIO.so.2.4:_ZN16OpenColorIO_v2_4eqERKNS_11GradingToneES2_
libOpenColorIO.so.2.4:_ZN16OpenColorIO_v2_4eqERKNS_13GradingRGBMSWES2_
libOpenColorIO.so.2.4:_ZN16OpenColorIO_v2_4eqERKNS_14GradingPrimaryES2_
libOpenColorIO.so.2.4:_ZN16OpenColorIO_v2_4eqERKNS_15GradingRGBCurveES2_
libOpenColorIO.so.2.4:_ZN16OpenColorIO_v2_4eqERKNS_19GradingBSplineCurveES2_
libOpenColorIO.so.2.4:_ZN16OpenColorIO_v2_4eqERKNS_19GradingControlPointES2_
libOpenColorIO.so.2.4:_ZN16OpenColorIO_v2_4lsERSoRKNS_10ColorSpaceE
libOpenColorIO.so.2.4:_ZN16OpenColorIO_v2_4lsERSoRKNS_11GradingRGBME
libOpenColorIO.so.2.4:_ZN16OpenColorIO_v2_4lsERSoRKNS_11GradingToneE
libOpenColorIO.so.2.4:_ZN16OpenColorIO_v2_4lsERSoRKNS_12CDLTransformE
libOpenColorIO.so.2.4:_ZN16OpenColorIO_v2_4lsERSoRKNS_12LogTransformE
libOpenColorIO.so.2.4:_ZN16OpenColorIO_v2_4lsERSoRKNS_12MixingSliderE
libOpenColorIO.so.2.4:_ZN16OpenColorIO_v2_4lsERSoRKNS_12ViewingRulesE
libOpenColorIO.so.2.4:_ZN16OpenColorIO_v2_4lsERSoRKNS_13FileTransformE
libOpenColorIO.so.2.4:_ZN16OpenColorIO_v2_4lsERSoRKNS_13GradingRGBMSWE
libOpenColorIO.so.2.4:_ZN16OpenColorIO_v2_4lsERSoRKNS_13LookTransformE
libOpenColorIO.so.2.4:_ZN16OpenColorIO_v2_4lsERSoRKNS_13ViewTransformE
libOpenColorIO.so.2.4:_ZN16OpenColorIO_v2_4lsERSoRKNS_14FormatMetadataE
libOpenColorIO.so.2.4:_ZN16OpenColorIO_v2_4lsERSoRKNS_14GradingPrimaryE
libOpenColorIO.so.2.4:_ZN16OpenColorIO_v2_4lsERSoRKNS_14GroupTransformE
libOpenColorIO.so.2.4:_ZN16OpenColorIO_v2_4lsERSoRKNS_14Lut1DTransformE
libOpenColorIO.so.2.4:_ZN16OpenColorIO_v2_4lsERSoRKNS_14Lut3DTransformE
libOpenColorIO.so.2.4:_ZN16OpenColorIO_v2_4lsERSoRKNS_14NamedTransformE
libOpenColorIO.so.2.4:_ZN16OpenColorIO_v2_4lsERSoRKNS_14RangeTransformE
libOpenColorIO.so.2.4:_ZN16OpenColorIO_v2_4lsERSoRKNS_15GradingRGBCurveE
libOpenColorIO.so.2.4:_ZN16OpenColorIO_v2_4lsERSoRKNS_15MatrixTransformE
libOpenColorIO.so.2.4:_ZN16OpenColorIO_v2_4lsERSoRKNS_16BuiltinTransformE
libOpenColorIO.so.2.4:_ZN16OpenColorIO_v2_4lsERSoRKNS_17ExponentTransformE
libOpenColorIO.so.2.4:_ZN16OpenColorIO_v2_4lsERSoRKNS_18LogAffineTransformE
libOpenColorIO.so.2.4:_ZN16OpenColorIO_v2_4lsERSoRKNS_18LogCameraTransformE
libOpenColorIO.so.2.4:_ZN16OpenColorIO_v2_4lsERSoRKNS_19AllocationTransformE
libOpenColorIO.so.2.4:_ZN16OpenColorIO_v2_4lsERSoRKNS_19ColorSpaceTransformE
libOpenColorIO.so.2.4:_ZN16OpenColorIO_v2_4lsERSoRKNS_19GradingBSplineCurveE
libOpenColorIO.so.2.4:_ZN16OpenColorIO_v2_4lsERSoRKNS_19GradingControlPointE
libOpenColorIO.so.2.4:_ZN16OpenColorIO_v2_4lsERSoRKNS_20ColorSpaceMenuHelperE
libOpenColorIO.so.2.4:_ZN16OpenColorIO_v2_4lsERSoRKNS_20DisplayViewTransformE
libOpenColorIO.so.2.4:_ZN16OpenColorIO_v2_4lsERSoRKNS_20GradingToneTransformE
libOpenColorIO.so.2.4:_ZN16OpenColorIO_v2_4lsERSoRKNS_21LegacyViewingPipelineE
libOpenColorIO.so.2.4:_ZN16OpenColorIO_v2_4lsERSoRKNS_22FixedFunctionTransformE
libOpenColorIO.so.2.4:_ZN16OpenColorIO_v2_4lsERSoRKNS_23GradingPrimaryTransformE
libOpenColorIO.so.2.4:_ZN16OpenColorIO_v2_4lsERSoRKNS_23MixingColorSpaceManagerE
libOpenColorIO.so.2.4:_ZN16OpenColorIO_v2_4lsERSoRKNS_24ColorSpaceMenuParametersE
libOpenColorIO.so.2.4:_ZN16OpenColorIO_v2_4lsERSoRKNS_24GradingRGBCurveTransformE
libOpenColorIO.so.2.4:_ZN16OpenColorIO_v2_4lsERSoRKNS_25ExposureContrastTransformE
libOpenColorIO.so.2.4:_ZN16OpenColorIO_v2_4lsERSoRKNS_27ExponentWithLinearTransformE
libOpenColorIO.so.2.4:_ZN16OpenColorIO_v2_4lsERSoRKNS_4LookE
libOpenColorIO.so.2.4:_ZN16OpenColorIO_v2_4lsERSoRKNS_6ConfigE
libOpenColorIO.so.2.4:_ZN16OpenColorIO_v2_4lsERSoRKNS_7ContextE
libOpenColorIO.so.2.4:_ZN16OpenColorIO_v2_4lsERSoRKNS_9FileRulesE
libOpenColorIO.so.2.4:_ZN16OpenColorIO_v2_4lsERSoRKNS_9ImageDescE
libOpenColorIO.so.2.4:_ZN16OpenColorIO_v2_4lsERSoRKNS_9TransformE
libOpenColorIO.so.2.4:_ZN16OpenColorIO_v2_4miERKSt10shared_ptrIKNS_13ColorSpaceSetEES5_
libOpenColorIO.so.2.4:_ZN16OpenColorIO_v2_4neERKNS_11GradingRGBMES2_
libOpenColorIO.so.2.4:_ZN16OpenColorIO_v2_4neERKNS_11GradingToneES2_
libOpenColorIO.so.2.4:_ZN16OpenColorIO_v2_4neERKNS_13GradingRGBMSWES2_
libOpenColorIO.so.2.4:_ZN16OpenColorIO_v2_4neERKNS_14GradingPrimaryES2_
libOpenColorIO.so.2.4:_ZN16OpenColorIO_v2_4neERKNS_15GradingRGBCurveES2_
libOpenColorIO.so.2.4:_ZN16OpenColorIO_v2_4neERKNS_19GradingBSplineCurveES2_
libOpenColorIO.so.2.4:_ZN16OpenColorIO_v2_4neERKNS_19GradingControlPointES2_
libOpenColorIO.so.2.4:_ZN16OpenColorIO_v2_4ooERKSt10shared_ptrIKNS_13ColorSpaceSetEES5_
libOpenColorIO.so.2.4:_ZNK16OpenColorIO_v2_410ColorSpace11getBitDepthEv
libOpenColorIO.so.2.4:_ZNK16OpenColorIO_v2_410ColorSpace11getCategoryEi
libOpenColorIO.so.2.4:_ZNK16OpenColorIO_v2_410ColorSpace11getEncodingEv
libOpenColorIO.so.2.4:_ZNK16OpenColorIO_v2_410ColorSpace11hasCategoryEPKc
libOpenColorIO.so.2.4:_ZNK16OpenColorIO_v2_410ColorSpace12getTransformENS_19ColorSpaceDirectionE
libOpenColorIO.so.2.4:_ZNK16OpenColorIO_v2_410ColorSpace13getAllocationEv
libOpenColorIO.so.2.4:_ZNK16OpenColorIO_v2_410ColorSpace13getNumAliasesEv
libOpenColorIO.so.2.4:_ZNK16OpenColorIO_v2_410ColorSpace14getDescriptionEv
libOpenColorIO.so.2.4:_ZNK16OpenColorIO_v2_410ColorSpace16getEqualityGroupEv
libOpenColorIO.so.2.4:_ZNK16OpenColorIO_v2_410ColorSpace16getNumCategoriesEv
libOpenColorIO.so.2.4:_ZNK16OpenColorIO_v2_410ColorSpace17getAllocationVarsEPf
libOpenColorIO.so.2.4:_ZNK16OpenColorIO_v2_410ColorSpace18createEditableCopyEv
libOpenColorIO.so.2.4:_ZNK16OpenColorIO_v2_410ColorSpace20getAllocationNumVarsEv
libOpenColorIO.so.2.4:_ZNK16OpenColorIO_v2_410ColorSpace21getReferenceSpaceTypeEv
libOpenColorIO.so.2.4:_ZNK16OpenColorIO_v2_410ColorSpace6isDataEv
libOpenColorIO.so.2.4:_ZNK16OpenColorIO_v2_410ColorSpace7getNameEv
libOpenColorIO.so.2.4:_ZNK16OpenColorIO_v2_410ColorSpace8getAliasEm
libOpenColorIO.so.2.4:_ZNK16OpenColorIO_v2_410ColorSpace8hasAliasEPKc
libOpenColorIO.so.2.4:_ZNK16OpenColorIO_v2_410ColorSpace9getFamilyEv
libOpenColorIO.so.2.4:_ZNK16OpenColorIO_v2_411GradingTone8validateEv
libOpenColorIO.so.2.4:_ZNK16OpenColorIO_v2_412CPUProcessor10getCacheIDEv
libOpenColorIO.so.2.4:_ZNK16OpenColorIO_v2_412CPUProcessor10isIdentityEv
libOpenColorIO.so.2.4:_ZNK16OpenColorIO_v2_412CPUProcessor16getInputBitDepthEv
libOpenColorIO.so.2.4:_ZNK16OpenColorIO_v2_412CPUProcessor17getOutputBitDepthEv
libOpenColorIO.so.2.4:_ZNK16OpenColorIO_v2_412CPUProcessor18getDynamicPropertyENS_19DynamicPropertyTypeE
libOpenColorIO.so.2.4:_ZNK16OpenColorIO_v2_412CPUProcessor18hasDynamicPropertyENS_19DynamicPropertyTypeE
libOpenColorIO.so.2.4:_ZNK16OpenColorIO_v2_412CPUProcessor19hasChannelCrosstalkEv
libOpenColorIO.so.2.4:_ZNK16OpenColorIO_v2_412CPUProcessor4Impl18getDynamicPropertyENS_19DynamicPropertyTypeE
libOpenColorIO.so.2.4:_ZNK16OpenColorIO_v2_412CPUProcessor4Impl18hasDynamicPropertyENS_19DynamicPropertyTypeE
libOpenColorIO.so.2.4:_ZNK16OpenColorIO_v2_412CPUProcessor4Impl5applyERKNS_9ImageDescE
libOpenColorIO.so.2.4:_ZNK16OpenColorIO_v2_412CPUProcessor4Impl5applyERKNS_9ImageDescERS2_
libOpenColorIO.so.2.4:_ZNK16OpenColorIO_v2_412CPUProcessor4Impl8applyRGBEPf
libOpenColorIO.so.2.4:_ZNK16OpenColorIO_v2_412CPUProcessor4Impl9applyRGBAEPf
libOpenColorIO.so.2.4:_ZNK16OpenColorIO_v2_412CPUProcessor4Impl9isDynamicEv
libOpenColorIO.so.2.4:_ZNK16OpenColorIO_v2_412CPUProcessor5applyERKNS_9ImageDescE
libOpenColorIO.so.2.4:_ZNK16OpenColorIO_v2_412CPUProcessor5applyERKNS_9ImageDescERS1_
libOpenColorIO.so.2.4:_ZNK16OpenColorIO_v2_412CPUProcessor6isNoOpEv
libOpenColorIO.so.2.4:_ZNK16OpenColorIO_v2_412CPUProcessor8applyRGBEPf
libOpenColorIO.so.2.4:_ZNK16OpenColorIO_v2_412CPUProcessor9applyRGBAEPf
libOpenColorIO.so.2.4:_ZNK16OpenColorIO_v2_412CPUProcessor9isDynamicEv
libOpenColorIO.so.2.4:_ZNK16OpenColorIO_v2_412GPUProcessor10getCacheIDEv
libOpenColorIO.so.2.4:_ZNK16OpenColorIO_v2_412GPUProcessor19hasChannelCrosstalkEv
libOpenColorIO.so.2.4:_ZNK16OpenColorIO_v2_412GPUProcessor20extractGpuShaderInfoERSt10shared_ptrINS_13GpuShaderDescEE
libOpenColorIO.so.2.4:_ZNK16OpenColorIO_v2_412GPUProcessor20extractGpuShaderInfoERSt10shared_ptrINS_16GpuShaderCreatorEE
libOpenColorIO.so.2.4:_ZNK16OpenColorIO_v2_412GPUProcessor4Impl20extractGpuShaderInfoERSt10shared_ptrINS_16GpuShaderCreatorEE
libOpenColorIO.so.2.4:_ZNK16OpenColorIO_v2_412GPUProcessor6isNoOpEv
libOpenColorIO.so.2.4:_ZNK16OpenColorIO_v2_412ViewingRules11getEncodingEmm
libOpenColorIO.so.2.4:_ZNK16OpenColorIO_v2_412ViewingRules13getColorSpaceEmm
libOpenColorIO.so.2.4:_ZNK16OpenColorIO_v2_412ViewingRules13getNumEntriesEv
libOpenColorIO.so.2.4:_ZNK16OpenColorIO_v2_412ViewingRules15getIndexForRuleEPKc
libOpenColorIO.so.2.4:_ZNK16OpenColorIO_v2_412ViewingRules15getNumEncodingsEm
libOpenColorIO.so.2.4:_ZNK16OpenColorIO_v2_412ViewingRules16getCustomKeyNameEmm
libOpenColorIO.so.2.4:_ZNK16OpenColorIO_v2_412ViewingRules16getNumCustomKeysEm
libOpenColorIO.so.2.4:_ZNK16OpenColorIO_v2_412ViewingRules17getCustomKeyValueEmm
libOpenColorIO.so.2.4:_ZNK16OpenColorIO_v2_412ViewingRules17getNumColorSpacesEm
libOpenColorIO.so.2.4:_ZNK16OpenColorIO_v2_412ViewingRules18createEditableCopyEv
libOpenColorIO.so.2.4:_ZNK16OpenColorIO_v2_412ViewingRules4Impl15validateNewRuleEPKc
libOpenColorIO.so.2.4:_ZNK16OpenColorIO_v2_412ViewingRules4Impl16validatePositionEm
libOpenColorIO.so.2.4:_ZNK16OpenColorIO_v2_412ViewingRules4Impl8validateESt8functionIFSt10shared_ptrIKNS_10ColorSpaceEEPKcEERKS3_INS_13ColorSpaceSetEE
libOpenColorIO.so.2.4:_ZNK16OpenColorIO_v2_412ViewingRules7getNameEm
libOpenColorIO.so.2.4:_ZNK16OpenColorIO_v2_413ColorSpaceSet13getColorSpaceEPKc
libOpenColorIO.so.2.4:_ZNK16OpenColorIO_v2_413ColorSpaceSet13hasColorSpaceEPKc
libOpenColorIO.so.2.4:_ZNK16OpenColorIO_v2_413ColorSpaceSet17getNumColorSpacesEv
libOpenColorIO.so.2.4:_ZNK16OpenColorIO_v2_413ColorSpaceSet18createEditableCopyEv
libOpenColorIO.so.2.4:_ZNK16OpenColorIO_v2_413ColorSpaceSet18getColorSpaceIndexEPKc
libOpenColorIO.so.2.4:_ZNK16OpenColorIO_v2_413ColorSpaceSet20getColorSpaceByIndexEi
libOpenColorIO.so.2.4:_ZNK16OpenColorIO_v2_413ColorSpaceSet24getColorSpaceNameByIndexEi
libOpenColorIO.so.2.4:_ZNK16OpenColorIO_v2_413ColorSpaceSeteqERKS0_
libOpenColorIO.so.2.4:_ZNK16OpenColorIO_v2_413ColorSpaceSetneERKS0_
libOpenColorIO.so.2.4:_ZNK16OpenColorIO_v2_413FileTransform11getCDLStyleEv
libOpenColorIO.so.2.4:_ZNK16OpenColorIO_v2_413FileTransform12getDirectionEv
libOpenColorIO.so.2.4:_ZNK16OpenColorIO_v2_413FileTransform16getInterpolationEv
libOpenColorIO.so.2.4:_ZNK16OpenColorIO_v2_413FileTransform18createEditableCopyEv
libOpenColorIO.so.2.4:_ZNK16OpenColorIO_v2_413FileTransform6getSrcEv
libOpenColorIO.so.2.4:_ZNK16OpenColorIO_v2_413FileTransform8getCCCIdEv
libOpenColorIO.so.2.4:_ZNK16OpenColorIO_v2_413FileTransform8validateEv
libOpenColorIO.so.2.4:_ZNK16OpenColorIO_v2_413GpuShaderDesc13getShaderTextEv
libOpenColorIO.so.2.4:_ZNK16OpenColorIO_v2_413GpuShaderDesc5cloneEv
libOpenColorIO.so.2.4:_ZNK16OpenColorIO_v2_413LookTransform12getDirectionEv
libOpenColorIO.so.2.4:_ZNK16OpenColorIO_v2_413LookTransform18createEditableCopyEv
libOpenColorIO.so.2.4:_ZNK16OpenColorIO_v2_413LookTransform27getSkipColorSpaceConversionEv
libOpenColorIO.so.2.4:_ZNK16OpenColorIO_v2_413LookTransform6getDstEv
libOpenColorIO.so.2.4:_ZNK16OpenColorIO_v2_413LookTransform6getSrcEv
libOpenColorIO.so.2.4:_ZNK16OpenColorIO_v2_413LookTransform8getLooksEv
libOpenColorIO.so.2.4:_ZNK16OpenColorIO_v2_413LookTransform8validateEv
libOpenColorIO.so.2.4:_ZNK16OpenColorIO_v2_413ViewTransform11getCategoryEi
libOpenColorIO.so.2.4:_ZNK16OpenColorIO_v2_413ViewTransform11hasCategoryEPKc
libOpenColorIO.so.2.4:_ZNK16OpenColorIO_v2_413ViewTransform12getTransformENS_22ViewTransformDirectionE
libOpenColorIO.so.2.4:_ZNK16OpenColorIO_v2_413ViewTransform14getDescriptionEv
libOpenColorIO.so.2.4:_ZNK16OpenColorIO_v2_413ViewTransform16getNumCategoriesEv
libOpenColorIO.so.2.4:_ZNK16OpenColorIO_v2_413ViewTransform18createEditableCopyEv
libOpenColorIO.so.2.4:_ZNK16OpenColorIO_v2_413ViewTransform21getReferenceSpaceTypeEv
libOpenColorIO.so.2.4:_ZNK16OpenColorIO_v2_413ViewTransform7getNameEv
libOpenColorIO.so.2.4:_ZNK16OpenColorIO_v2_413ViewTransform9getFamilyEv
libOpenColorIO.so.2.4:_ZNK16OpenColorIO_v2_414GradingPrimary8validateENS_12GradingStyleE
libOpenColorIO.so.2.4:_ZNK16OpenColorIO_v2_415PackedImageDesc11getBitDepthEv
libOpenColorIO.so.2.4:_ZNK16OpenColorIO_v2_415PackedImageDesc12isRGBAPackedEv
libOpenColorIO.so.2.4:_ZNK16OpenColorIO_v2_415PackedImageDesc14getNumChannelsEv
libOpenColorIO.so.2.4:_ZNK16OpenColorIO_v2_415PackedImageDesc15getChannelOrderEv
libOpenColorIO.so.2.4:_ZNK16OpenColorIO_v2_415PackedImageDesc15getXStrideBytesEv
libOpenColorIO.so.2.4:_ZNK16OpenColorIO_v2_415PackedImageDesc15getYStrideBytesEv
libOpenColorIO.so.2.4:_ZNK16OpenColorIO_v2_415PackedImageDesc18getChanStrideBytesEv
libOpenColorIO.so.2.4:_ZNK16OpenColorIO_v2_415PackedImageDesc7getDataEv
libOpenColorIO.so.2.4:_ZNK16OpenColorIO_v2_415PackedImageDesc7isFloatEv
libOpenColorIO.so.2.4:_ZNK16OpenColorIO_v2_415PackedImageDesc8getADataEv
libOpenColorIO.so.2.4:_ZNK16OpenColorIO_v2_415PackedImageDesc8getBDataEv
libOpenColorIO.so.2.4:_ZNK16OpenColorIO_v2_415PackedImageDesc8getGDataEv
libOpenColorIO.so.2.4:_ZNK16OpenColorIO_v2_415PackedImageDesc8getRDataEv
libOpenColorIO.so.2.4:_ZNK16OpenColorIO_v2_415PackedImageDesc8getWidthEv
libOpenColorIO.so.2.4:_ZNK16OpenColorIO_v2_415PackedImageDesc9getHeightEv
libOpenColorIO.so.2.4:_ZNK16OpenColorIO_v2_415PlanarImageDesc11getBitDepthEv
libOpenColorIO.so.2.4:_ZNK16OpenColorIO_v2_415PlanarImageDesc12isRGBAPackedEv
libOpenColorIO.so.2.4:_ZNK16OpenColorIO_v2_415PlanarImageDesc15getXStrideBytesEv
libOpenColorIO.so.2.4:_ZNK16OpenColorIO_v2_415PlanarImageDesc15getYStrideBytesEv
libOpenColorIO.so.2.4:_ZNK16OpenColorIO_v2_415PlanarImageDesc7isFloatEv
libOpenColorIO.so.2.4:_ZNK16OpenColorIO_v2_415PlanarImageDesc8getADataEv
libOpenColorIO.so.2.4:_ZNK16OpenColorIO_v2_415PlanarImageDesc8getBDataEv
libOpenColorIO.so.2.4:_ZNK16OpenColorIO_v2_415PlanarImageDesc8getGDataEv
libOpenColorIO.so.2.4:_ZNK16OpenColorIO_v2_415PlanarImageDesc8getRDataEv
libOpenColorIO.so.2.4:_ZNK16OpenColorIO_v2_415PlanarImageDesc8getWidthEv
libOpenColorIO.so.2.4:_ZNK16OpenColorIO_v2_415PlanarImageDesc9getHeightEv
libOpenColorIO.so.2.4:_ZNK16OpenColorIO_v2_416GpuShaderCreator10getCacheIDEv
libOpenColorIO.so.2.4:_ZNK16OpenColorIO_v2_416GpuShaderCreator11getLanguageEv
libOpenColorIO.so.2.4:_ZNK16OpenColorIO_v2_416GpuShaderCreator11getUniqueIDEv
libOpenColorIO.so.2.4:_ZNK16OpenColorIO_v2_416GpuShaderCreator12getPixelNameEv
libOpenColorIO.so.2.4:_ZNK16OpenColorIO_v2_416GpuShaderCreator15getFunctionNameEv
libOpenColorIO.so.2.4:_ZNK16OpenColorIO_v2_416GpuShaderCreator17getResourcePrefixEv
libOpenColorIO.so.2.4:_ZNK16OpenColorIO_v2_416GpuShaderCreator18getDynamicPropertyENS_19DynamicPropertyTypeE
libOpenColorIO.so.2.4:_ZNK16OpenColorIO_v2_416GpuShaderCreator18getDynamicPropertyEj
libOpenColorIO.so.2.4:_ZNK16OpenColorIO_v2_416GpuShaderCreator18hasDynamicPropertyENS_19DynamicPropertyTypeE
libOpenColorIO.so.2.4:_ZNK16OpenColorIO_v2_416GpuShaderCreator23getNumDynamicPropertiesEv
libOpenColorIO.so.2.4:_ZNK16OpenColorIO_v2_417ProcessorMetadata11getNumFilesEv
libOpenColorIO.so.2.4:_ZNK16OpenColorIO_v2_417ProcessorMetadata11getNumLooksEv
libOpenColorIO.so.2.4:_ZNK16OpenColorIO_v2_417ProcessorMetadata7getFileEi
libOpenColorIO.so.2.4:_ZNK16OpenColorIO_v2_417ProcessorMetadata7getLookEi
libOpenColorIO.so.2.4:_ZNK16OpenColorIO_v2_419AllocationTransform10getNumVarsEv
libOpenColorIO.so.2.4:_ZNK16OpenColorIO_v2_419AllocationTransform12getDirectionEv
libOpenColorIO.so.2.4:_ZNK16OpenColorIO_v2_419AllocationTransform13getAllocationEv
libOpenColorIO.so.2.4:_ZNK16OpenColorIO_v2_419AllocationTransform18createEditableCopyEv
libOpenColorIO.so.2.4:_ZNK16OpenColorIO_v2_419AllocationTransform7getVarsEPf
libOpenColorIO.so.2.4:_ZNK16OpenColorIO_v2_419AllocationTransform8validateEv
libOpenColorIO.so.2.4:_ZNK16OpenColorIO_v2_419ColorSpaceTransform12getDirectionEv
libOpenColorIO.so.2.4:_ZNK16OpenColorIO_v2_419ColorSpaceTransform13getDataBypassEv
libOpenColorIO.so.2.4:_ZNK16OpenColorIO_v2_419ColorSpaceTransform18createEditableCopyEv
libOpenColorIO.so.2.4:_ZNK16OpenColorIO_v2_419ColorSpaceTransform6getDstEv
libOpenColorIO.so.2.4:_ZNK16OpenColorIO_v2_419ColorSpaceTransform6getSrcEv
libOpenColorIO.so.2.4:_ZNK16OpenColorIO_v2_419ColorSpaceTransform8validateEv
libOpenColorIO.so.2.4:_ZNK16OpenColorIO_v2_420DisplayViewTransform10getDisplayEv
libOpenColorIO.so.2.4:_ZNK16OpenColorIO_v2_420DisplayViewTransform12getDirectionEv
libOpenColorIO.so.2.4:_ZNK16OpenColorIO_v2_420DisplayViewTransform13getDataBypassEv
libOpenColorIO.so.2.4:_ZNK16OpenColorIO_v2_420DisplayViewTransform14getLooksBypassEv
libOpenColorIO.so.2.4:_ZNK16OpenColorIO_v2_420DisplayViewTransform18createEditableCopyEv
libOpenColorIO.so.2.4:_ZNK16OpenColorIO_v2_420DisplayViewTransform6getSrcEv
libOpenColorIO.so.2.4:_ZNK16OpenColorIO_v2_420DisplayViewTransform7getViewEv
libOpenColorIO.so.2.4:_ZNK16OpenColorIO_v2_420DisplayViewTransform8validateEv
libOpenColorIO.so.2.4:_ZNK16OpenColorIO_v2_44Look12getTransformEv
libOpenColorIO.so.2.4:_ZNK16OpenColorIO_v2_44Look14getDescriptionEv
libOpenColorIO.so.2.4:_ZNK16OpenColorIO_v2_44Look15getProcessSpaceEv
libOpenColorIO.so.2.4:_ZNK16OpenColorIO_v2_44Look18createEditableCopyEv
libOpenColorIO.so.2.4:_ZNK16OpenColorIO_v2_44Look19getInverseTransformEv
libOpenColorIO.so.2.4:_ZNK16OpenColorIO_v2_44Look7getNameEv
libOpenColorIO.so.2.4:_ZNK16OpenColorIO_v2_45Baker10getDisplayEv
libOpenColorIO.so.2.4:_ZNK16OpenColorIO_v2_45Baker11getCubeSizeEv
libOpenColorIO.so.2.4:_ZNK16OpenColorIO_v2_45Baker13getInputSpaceEv
libOpenColorIO.so.2.4:_ZNK16OpenColorIO_v2_45Baker13getShaperSizeEv
libOpenColorIO.so.2.4:_ZNK16OpenColorIO_v2_45Baker14getShaperSpaceEv
libOpenColorIO.so.2.4:_ZNK16OpenColorIO_v2_45Baker14getTargetSpaceEv
libOpenColorIO.so.2.4:_ZNK16OpenColorIO_v2_45Baker17getFormatMetadataEv
libOpenColorIO.so.2.4:_ZNK16OpenColorIO_v2_45Baker18createEditableCopyEv
libOpenColorIO.so.2.4:_ZNK16OpenColorIO_v2_45Baker4bakeERSo
libOpenColorIO.so.2.4:_ZNK16OpenColorIO_v2_45Baker7getViewEv
libOpenColorIO.so.2.4:_ZNK16OpenColorIO_v2_45Baker8getLooksEv
libOpenColorIO.so.2.4:_ZNK16OpenColorIO_v2_45Baker9getConfigEv
libOpenColorIO.so.2.4:_ZNK16OpenColorIO_v2_45Baker9getFormatEv
libOpenColorIO.so.2.4:_ZNK16OpenColorIO_v2_46Config10getCacheIDERKSt10shared_ptrIKNS_7ContextEE
libOpenColorIO.so.2.4:_ZNK16OpenColorIO_v2_46Config10getCacheIDEv
libOpenColorIO.so.2.4:_ZNK16OpenColorIO_v2_46Config10getDisplayEi
libOpenColorIO.so.2.4:_ZNK16OpenColorIO_v2_46Config11getNumLooksEv
libOpenColorIO.so.2.4:_ZNK16OpenColorIO_v2_46Config11getNumRolesEv
libOpenColorIO.so.2.4:_ZNK16OpenColorIO_v2_46Config11getNumViewsENS_8ViewTypeEPKc
libOpenColorIO.so.2.4:_ZNK16OpenColorIO_v2_46Config11getNumViewsEPKc
libOpenColorIO.so.2.4:_ZNK16OpenColorIO_v2_46Config11getNumViewsEPKcS2_
libOpenColorIO.so.2.4:_ZNK16OpenColorIO_v2_46Config11getRoleNameEi
libOpenColorIO.so.2.4:_ZNK16OpenColorIO_v2_46Config12getFileRulesEv
libOpenColorIO.so.2.4:_ZNK16OpenColorIO_v2_46Config12getProcessorEPKcNS_18TransformDirectionE
libOpenColorIO.so.2.4:_ZNK16OpenColorIO_v2_46Config12getProcessorEPKcS2_
libOpenColorIO.so.2.4:_ZNK16OpenColorIO_v2_46Config12getProcessorEPKcS2_S2_NS_18TransformDirectionE
libOpenColorIO.so.2.4:_ZNK16OpenColorIO_v2_46Config12getProcessorERKSt10shared_ptrIKNS_10ColorSpaceEES6_
libOpenColorIO.so.2.4:_ZNK16OpenColorIO_v2_46Config12getProcessorERKSt10shared_ptrIKNS_14NamedTransformEENS_18TransformDirectionE
libOpenColorIO.so.2.4:_ZNK16OpenColorIO_v2_46Config12getProcessorERKSt10shared_ptrIKNS_7ContextEEPKcNS_18TransformDirectionE
libOpenColorIO.so.2.4:_ZNK16OpenColorIO_v2_46Config12getProcessorERKSt10shared_ptrIKNS_7ContextEEPKcS8_
libOpenColorIO.so.2.4:_ZNK16OpenColorIO_v2_46Config12getProcessorERKSt10shared_ptrIKNS_7ContextEEPKcS8_S8_NS_18TransformDirectionE
libOpenColorIO.so.2.4:_ZNK16OpenColorIO_v2_46Config12getProcessorERKSt10shared_ptrIKNS_7ContextEERKS1_IKNS_10ColorSpaceEESB_
libOpenColorIO.so.2.4:_ZNK16OpenColorIO_v2_46Config12getProcessorERKSt10shared_ptrIKNS_7ContextEERKS1_IKNS_14NamedTransformEENS_18TransformDirectionE
libOpenColorIO.so.2.4:_ZNK16OpenColorIO_v2_46Config12getProcessorERKSt10shared_ptrIKNS_7ContextEERKS1_IKNS_9TransformEENS_18TransformDirectionE
libOpenColorIO.so.2.4:_ZNK16OpenColorIO_v2_46Config12getProcessorERKSt10shared_ptrIKNS_9TransformEE
libOpenColorIO.so.2.4:_ZNK16OpenColorIO_v2_46Config12getProcessorERKSt10shared_ptrIKNS_9TransformEENS_18TransformDirectionE
libOpenColorIO.so.2.4:_ZNK16OpenColorIO_v2_46Config12isArchivableEv
libOpenColorIO.so.2.4:_ZNK16OpenColorIO_v2_46Config13getColorSpaceEPKc
libOpenColorIO.so.2.4:_ZNK16OpenColorIO_v2_46Config13getDisplayAllEi
libOpenColorIO.so.2.4:_ZNK16OpenColorIO_v2_46Config13getSearchPathEi
libOpenColorIO.so.2.4:_ZNK16OpenColorIO_v2_46Config13getSearchPathEv
libOpenColorIO.so.2.4:_ZNK16OpenColorIO_v2_46Config13getWorkingDirEv
libOpenColorIO.so.2.4:_ZNK16OpenColorIO_v2_46Config14getActiveViewsEv
libOpenColorIO.so.2.4:_ZNK16OpenColorIO_v2_46Config14getColorSpacesEPKc
libOpenColorIO.so.2.4:_ZNK16OpenColorIO_v2_46Config14getDefaultViewEPKc
libOpenColorIO.so.2.4:_ZNK16OpenColorIO_v2_46Config14getDefaultViewEPKcS2_
libOpenColorIO.so.2.4:_ZNK16OpenColorIO_v2_46Config14getDescriptionEv
libOpenColorIO.so.2.4:_ZNK16OpenColorIO_v2_46Config14getNumDisplaysEv
libOpenColorIO.so.2.4:_ZNK16OpenColorIO_v2_46Config15getMajorVersionEv
libOpenColorIO.so.2.4:_ZNK16OpenColorIO_v2_46Config15getMinorVersionEv
libOpenColorIO.so.2.4:_ZNK16OpenColorIO_v2_46Config15getViewingRulesEv
libOpenColorIO.so.2.4:_ZNK16OpenColorIO_v2_46Config16getCanonicalNameEPKc
libOpenColorIO.so.2.4:_ZNK16OpenColorIO_v2_46Config16getConfigIOProxyEv
libOpenColorIO.so.2.4:_ZNK16OpenColorIO_v2_46Config16getViewTransformEPKc
libOpenColorIO.so.2.4:_ZNK16OpenColorIO_v2_46Config16isColorSpaceUsedEPKc
libOpenColorIO.so.2.4:_ZNK16OpenColorIO_v2_46Config17getActiveDisplaysEv
libOpenColorIO.so.2.4:_ZNK16OpenColorIO_v2_46Config17getCurrentContextEv
libOpenColorIO.so.2.4:_ZNK16OpenColorIO_v2_46Config17getDefaultDisplayEv
libOpenColorIO.so.2.4:_ZNK16OpenColorIO_v2_46Config17getNamedTransformEPKc
libOpenColorIO.so.2.4:_ZNK16OpenColorIO_v2_46Config17getNumColorSpacesENS_24SearchReferenceSpaceTypeENS_20ColorSpaceVisibilityE
libOpenColorIO.so.2.4:_ZNK16OpenColorIO_v2_46Config17getNumColorSpacesEv
libOpenColorIO.so.2.4:_ZNK16OpenColorIO_v2_46Config17getNumDisplaysAllEv
libOpenColorIO.so.2.4:_ZNK16OpenColorIO_v2_46Config17getNumSearchPathsEv
libOpenColorIO.so.2.4:_ZNK16OpenColorIO_v2_46Config17getRoleColorSpaceEPKc
libOpenColorIO.so.2.4:_ZNK16OpenColorIO_v2_46Config17getRoleColorSpaceEi
libOpenColorIO.so.2.4:_ZNK16OpenColorIO_v2_46Config18createEditableCopyEv
libOpenColorIO.so.2.4:_ZNK16OpenColorIO_v2_46Config18getDisplayViewRuleEPKcS2_
libOpenColorIO.so.2.4:_ZNK16OpenColorIO_v2_46Config18getEnvironmentModeEv
libOpenColorIO.so.2.4:_ZNK16OpenColorIO_v2_46Config18getFamilySeparatorEv
libOpenColorIO.so.2.4:_ZNK16OpenColorIO_v2_46Config18getLookNameByIndexEi
libOpenColorIO.so.2.4:_ZNK16OpenColorIO_v2_46Config18isColorSpaceLinearEPKcNS_18ReferenceSpaceTypeE
libOpenColorIO.so.2.4:_ZNK16OpenColorIO_v2_46Config18isDisplayTemporaryEi
libOpenColorIO.so.2.4:_ZNK16OpenColorIO_v2_46Config19getDefaultLumaCoefsEPd
libOpenColorIO.so.2.4:_ZNK16OpenColorIO_v2_46Config19getDisplayAllByNameEPKc
libOpenColorIO.so.2.4:_ZNK16OpenColorIO_v2_46Config19getDisplayViewLooksEPKcS2_
libOpenColorIO.so.2.4:_ZNK16OpenColorIO_v2_46Config20getNumViewTransformsEv
libOpenColorIO.so.2.4:_ZNK16OpenColorIO_v2_46Config20isInactiveColorSpaceEPKc
libOpenColorIO.so.2.4:_ZNK16OpenColorIO_v2_46Config21getIndexForColorSpaceEPKc
libOpenColorIO.so.2.4:_ZNK16OpenColorIO_v2_46Config21getNumEnvironmentVarsEv
libOpenColorIO.so.2.4:_ZNK16OpenColorIO_v2_46Config21getNumNamedTransformsENS_24NamedTransformVisibilityE
libOpenColorIO.so.2.4:_ZNK16OpenColorIO_v2_46Config21getNumNamedTransformsEv
libOpenColorIO.so.2.4:_ZNK16OpenColorIO_v2_46Config21getVirtualDisplayViewENS_8ViewTypeEi
libOpenColorIO.so.2.4:_ZNK16OpenColorIO_v2_46Config22getInactiveColorSpacesEv
libOpenColorIO.so.2.4:_ZNK16OpenColorIO_v2_46Config22getProcessorCacheFlagsEv
libOpenColorIO.so.2.4:_ZNK16OpenColorIO_v2_46Config22isStrictParsingEnabledEv
libOpenColorIO.so.2.4:_ZNK16OpenColorIO_v2_46Config22setProcessorCacheFlagsENS_19ProcessorCacheFlagsE
libOpenColorIO.so.2.4:_ZNK16OpenColorIO_v2_46Config24getColorSpaceNameByIndexENS_24SearchReferenceSpaceTypeENS_20ColorSpaceVisibilityEi
libOpenColorIO.so.2.4:_ZNK16OpenColorIO_v2_46Config24getColorSpaceNameByIndexEi
libOpenColorIO.so.2.4:_ZNK16OpenColorIO_v2_46Config24getEnvironmentVarDefaultEPKc
libOpenColorIO.so.2.4:_ZNK16OpenColorIO_v2_46Config25getColorSpaceFromFilepathEPKc
libOpenColorIO.so.2.4:_ZNK16OpenColorIO_v2_46Config25getColorSpaceFromFilepathEPKcRm
libOpenColorIO.so.2.4:_ZNK16OpenColorIO_v2_46Config25getDisplayViewDescriptionEPKcS2_
libOpenColorIO.so.2.4:_ZNK16OpenColorIO_v2_46Config25getIndexForNamedTransformEPKc
libOpenColorIO.so.2.4:_ZNK16OpenColorIO_v2_46Config25getVirtualDisplayNumViewsENS_8ViewTypeE
libOpenColorIO.so.2.4:_ZNK16OpenColorIO_v2_46Config25getVirtualDisplayViewRuleEPKc
libOpenColorIO.so.2.4:_ZNK16OpenColorIO_v2_46Config25parseColorSpaceFromStringEPKc
libOpenColorIO.so.2.4:_ZNK16OpenColorIO_v2_46Config26getVirtualDisplayViewLooksEPKc
libOpenColorIO.so.2.4:_ZNK16OpenColorIO_v2_46Config27getDefaultViewTransformNameEv
libOpenColorIO.so.2.4:_ZNK16OpenColorIO_v2_46Config27getDisplayViewTransformNameEPKcS2_
libOpenColorIO.so.2.4:_ZNK16OpenColorIO_v2_46Config27getViewTransformNameByIndexEi
libOpenColorIO.so.2.4:_ZNK16OpenColorIO_v2_46Config28getDisplayViewColorSpaceNameEPKcS2_
libOpenColorIO.so.2.4:_ZNK16OpenColorIO_v2_46Config28getEnvironmentVarNameByIndexEi
libOpenColorIO.so.2.4:_ZNK16OpenColorIO_v2_46Config28getNamedTransformNameByIndexENS_24NamedTransformVisibilityEi
libOpenColorIO.so.2.4:_ZNK16OpenColorIO_v2_46Config28getNamedTransformNameByIndexEi
libOpenColorIO.so.2.4:_ZNK16OpenColorIO_v2_46Config30filepathOnlyMatchesDefaultRuleEPKc
libOpenColorIO.so.2.4:_ZNK16OpenColorIO_v2_46Config32getVirtualDisplayViewDescriptionEPKc
libOpenColorIO.so.2.4:_ZNK16OpenColorIO_v2_46Config34getVirtualDisplayViewTransformNameEPKc
libOpenColorIO.so.2.4:_ZNK16OpenColorIO_v2_46Config35getVirtualDisplayViewColorSpaceNameEPKc
libOpenColorIO.so.2.4:_ZNK16OpenColorIO_v2_46Config37getDefaultSceneToDisplayViewTransformEv
libOpenColorIO.so.2.4:_ZNK16OpenColorIO_v2_46Config4Impl22buildInactiveNamesListB5cxx11ENS1_12InactiveTypeE
libOpenColorIO.so.2.4:_ZNK16OpenColorIO_v2_46Config4Impl23checkVersionConsistencyERSt10shared_ptrIKNS_9TransformEE
libOpenColorIO.so.2.4:_ZNK16OpenColorIO_v2_46Config4Impl23checkVersionConsistencyEv
libOpenColorIO.so.2.4:_ZNK16OpenColorIO_v2_46Config4Impl24getAllInternalTransformsERSt6vectorISt10shared_ptrIKNS_9TransformEESaIS6_EE
libOpenColorIO.so.2.4:_ZNK16OpenColorIO_v2_46Config7archiveERSo
libOpenColorIO.so.2.4:_ZNK16OpenColorIO_v2_46Config7getLookEPKc
libOpenColorIO.so.2.4:_ZNK16OpenColorIO_v2_46Config7getNameEv
libOpenColorIO.so.2.4:_ZNK16OpenColorIO_v2_46Config7getViewENS_8ViewTypeEPKci
libOpenColorIO.so.2.4:_ZNK16OpenColorIO_v2_46Config7getViewEPKcS2_i
libOpenColorIO.so.2.4:_ZNK16OpenColorIO_v2_46Config7getViewEPKci
libOpenColorIO.so.2.4:_ZNK16OpenColorIO_v2_46Config7hasRoleEPKc
libOpenColorIO.so.2.4:_ZNK16OpenColorIO_v2_46Config8validateEv
libOpenColorIO.so.2.4:_ZNK16OpenColorIO_v2_46Config9serializeERSo
libOpenColorIO.so.2.4:_ZNK16OpenColorIO_v2_47Context10getCacheIDEv
libOpenColorIO.so.2.4:_ZNK16OpenColorIO_v2_47Context12getStringVarEPKc
libOpenColorIO.so.2.4:_ZNK16OpenColorIO_v2_47Context13getSearchPathEi
libOpenColorIO.so.2.4:_ZNK16OpenColorIO_v2_47Context13getSearchPathEv
libOpenColorIO.so.2.4:_ZNK16OpenColorIO_v2_47Context13getWorkingDirEv
libOpenColorIO.so.2.4:_ZNK16OpenColorIO_v2_47Context16getConfigIOProxyEv
libOpenColorIO.so.2.4:_ZNK16OpenColorIO_v2_47Context16getNumStringVarsEv
libOpenColorIO.so.2.4:_ZNK16OpenColorIO_v2_47Context16resolveStringVarEPKc
libOpenColorIO.so.2.4:_ZNK16OpenColorIO_v2_47Context16resolveStringVarEPKcRSt10shared_ptrIS0_E
libOpenColorIO.so.2.4:_ZNK16OpenColorIO_v2_47Context17getNumSearchPathsEv
libOpenColorIO.so.2.4:_ZNK16OpenColorIO_v2_47Context18createEditableCopyEv
libOpenColorIO.so.2.4:_ZNK16OpenColorIO_v2_47Context18getEnvironmentModeEv
libOpenColorIO.so.2.4:_ZNK16OpenColorIO_v2_47Context19getStringVarByIndexEi
libOpenColorIO.so.2.4:_ZNK16OpenColorIO_v2_47Context19resolveFileLocationEPKc
libOpenColorIO.so.2.4:_ZNK16OpenColorIO_v2_47Context19resolveFileLocationEPKcRSt10shared_ptrIS0_E
libOpenColorIO.so.2.4:_ZNK16OpenColorIO_v2_47Context23getStringVarNameByIndexEi
libOpenColorIO.so.2.4:_ZNK16OpenColorIO_v2_49FileRules10getPatternEm
libOpenColorIO.so.2.4:_ZNK16OpenColorIO_v2_49FileRules12getExtensionEm
libOpenColorIO.so.2.4:_ZNK16OpenColorIO_v2_49FileRules13getColorSpaceEm
libOpenColorIO.so.2.4:_ZNK16OpenColorIO_v2_49FileRules13getNumEntriesEv
libOpenColorIO.so.2.4:_ZNK16OpenColorIO_v2_49FileRules15getIndexForRuleEPKc
libOpenColorIO.so.2.4:_ZNK16OpenColorIO_v2_49FileRules16getCustomKeyNameEmm
libOpenColorIO.so.2.4:_ZNK16OpenColorIO_v2_49FileRules16getNumCustomKeysEm
libOpenColorIO.so.2.4:_ZNK16OpenColorIO_v2_49FileRules17getCustomKeyValueEmm
libOpenColorIO.so.2.4:_ZNK16OpenColorIO_v2_49FileRules18createEditableCopyEv
libOpenColorIO.so.2.4:_ZNK16OpenColorIO_v2_49FileRules4Impl15validateNewRuleEmPKc
libOpenColorIO.so.2.4:_ZNK16OpenColorIO_v2_49FileRules4Impl16validatePositionEmNS1_14DefaultAllowedE
libOpenColorIO.so.2.4:_ZNK16OpenColorIO_v2_49FileRules4Impl19getRuleFromFilepathERKNS_6ConfigEPKcRm
libOpenColorIO.so.2.4:_ZNK16OpenColorIO_v2_49FileRules4Impl25getColorSpaceFromFilepathERKNS_6ConfigEPKc
libOpenColorIO.so.2.4:_ZNK16OpenColorIO_v2_49FileRules4Impl25getColorSpaceFromFilepathERKNS_6ConfigEPKcRm
libOpenColorIO.so.2.4:_ZNK16OpenColorIO_v2_49FileRules4Impl30filepathOnlyMatchesDefaultRuleERKNS_6ConfigEPKc
libOpenColorIO.so.2.4:_ZNK16OpenColorIO_v2_49FileRules4Impl8validateERKNS_6ConfigE
libOpenColorIO.so.2.4:_ZNK16OpenColorIO_v2_49FileRules7getNameEm
libOpenColorIO.so.2.4:_ZNK16OpenColorIO_v2_49FileRules8getRegexEm
libOpenColorIO.so.2.4:_ZNK16OpenColorIO_v2_49FileRules9isDefaultEv
libOpenColorIO.so.2.4:_ZNK16OpenColorIO_v2_49Processor10getCacheIDEv
libOpenColorIO.so.2.4:_ZNK16OpenColorIO_v2_49Processor16getNumTransformsEv
libOpenColorIO.so.2.4:_ZNK16OpenColorIO_v2_49Processor17getFormatMetadataEv
libOpenColorIO.so.2.4:_ZNK16OpenColorIO_v2_49Processor18getDynamicPropertyENS_19DynamicPropertyTypeE
libOpenColorIO.so.2.4:_ZNK16OpenColorIO_v2_49Processor18hasDynamicPropertyENS_19DynamicPropertyTypeE
libOpenColorIO.so.2.4:_ZNK16OpenColorIO_v2_49Processor19hasChannelCrosstalkEv
libOpenColorIO.so.2.4:_ZNK16OpenColorIO_v2_49Processor20createGroupTransformEv
libOpenColorIO.so.2.4:_ZNK16OpenColorIO_v2_49Processor20getProcessorMetadataEv
libOpenColorIO.so.2.4:_ZNK16OpenColorIO_v2_49Processor21getOptimizedProcessorENS_17OptimizationFlagsE
libOpenColorIO.so.2.4:_ZNK16OpenColorIO_v2_49Processor21getOptimizedProcessorENS_8BitDepthES1_NS_17OptimizationFlagsE
libOpenColorIO.so.2.4:_ZNK16OpenColorIO_v2_49Processor22getDefaultCPUProcessorEv
libOpenColorIO.so.2.4:_ZNK16OpenColorIO_v2_49Processor22getDefaultGPUProcessorEv
libOpenColorIO.so.2.4:_ZNK16OpenColorIO_v2_49Processor24getOptimizedCPUProcessorENS_17OptimizationFlagsE
libOpenColorIO.so.2.4:_ZNK16OpenColorIO_v2_49Processor24getOptimizedCPUProcessorENS_8BitDepthES1_NS_17OptimizationFlagsE
libOpenColorIO.so.2.4:_ZNK16OpenColorIO_v2_49Processor24getOptimizedGPUProcessorENS_17OptimizationFlagsE
libOpenColorIO.so.2.4:_ZNK16OpenColorIO_v2_49Processor26getTransformFormatMetadataEi
libOpenColorIO.so.2.4:_ZNK16OpenColorIO_v2_49Processor30getOptimizedLegacyGPUProcessorENS_17OptimizationFlagsEj
libOpenColorIO.so.2.4:_ZNK16OpenColorIO_v2_49Processor4Impl10getCacheIDEv
libOpenColorIO.so.2.4:_ZNK16OpenColorIO_v2_49Processor4Impl15getGPUProcessorERKNS_10OpRcPtrVecENS_17OptimizationFlagsE
libOpenColorIO.so.2.4:_ZNK16OpenColorIO_v2_49Processor4Impl16getNumTransformsEv
libOpenColorIO.so.2.4:_ZNK16OpenColorIO_v2_49Processor4Impl17getFormatMetadataEv
libOpenColorIO.so.2.4:_ZNK16OpenColorIO_v2_49Processor4Impl18getDynamicPropertyENS_19DynamicPropertyTypeE
libOpenColorIO.so.2.4:_ZNK16OpenColorIO_v2_49Processor4Impl18hasDynamicPropertyENS_19DynamicPropertyTypeE
libOpenColorIO.so.2.4:_ZNK16OpenColorIO_v2_49Processor4Impl19hasChannelCrosstalkEv
libOpenColorIO.so.2.4:_ZNK16OpenColorIO_v2_49Processor4Impl20createGroupTransformEv
libOpenColorIO.so.2.4:_ZNK16OpenColorIO_v2_49Processor4Impl20getProcessorMetadataEv
libOpenColorIO.so.2.4:_ZNK16OpenColorIO_v2_49Processor4Impl21getOptimizedProcessorENS_17OptimizationFlagsE
libOpenColorIO.so.2.4:_ZNK16OpenColorIO_v2_49Processor4Impl21getOptimizedProcessorENS_8BitDepthES2_NS_17OptimizationFlagsE
libOpenColorIO.so.2.4:_ZNK16OpenColorIO_v2_49Processor4Impl22getDefaultCPUProcessorEv
libOpenColorIO.so.2.4:_ZNK16OpenColorIO_v2_49Processor4Impl22getDefaultGPUProcessorEv
libOpenColorIO.so.2.4:_ZNK16OpenColorIO_v2_49Processor4Impl24getOptimizedCPUProcessorENS_17OptimizationFlagsE
libOpenColorIO.so.2.4:_ZNK16OpenColorIO_v2_49Processor4Impl24getOptimizedCPUProcessorENS_8BitDepthES2_NS_17OptimizationFlagsE
libOpenColorIO.so.2.4:_ZNK16OpenColorIO_v2_49Processor4Impl24getOptimizedGPUProcessorENS_17OptimizationFlagsE
libOpenColorIO.so.2.4:_ZNK16OpenColorIO_v2_49Processor4Impl26getTransformFormatMetadataEi
libOpenColorIO.so.2.4:_ZNK16OpenColorIO_v2_49Processor4Impl30getOptimizedLegacyGPUProcessorENS_17OptimizationFlagsEj
libOpenColorIO.so.2.4:_ZNK16OpenColorIO_v2_49Processor4Impl6isNoOpEv
libOpenColorIO.so.2.4:_ZNK16OpenColorIO_v2_49Processor4Impl9isDynamicEv
libOpenColorIO.so.2.4:_ZNK16OpenColorIO_v2_49Processor6isNoOpEv
libOpenColorIO.so.2.4:_ZNK16OpenColorIO_v2_49Processor9isDynamicEv
libOpenColorIO.so.2.4:_ZNK16OpenColorIO_v2_49Transform8validateEv
